(dp1
V
F1.2340367073304759
sV\u0906
F1.530658591975776
sV\u0921\u093f\u092c\u094d\u092c\u0947
p2
F0.00075700227100681302
sV\u091d\u091f
p3
F0.00075700227100681302
sV\u091a\u093e\u0932\u093e\u0915\u0940
p4
F0.00098911968348170125
sV\u0918\u091f\u0928\u093e\u0915\u094d\u0930\u092e
p5
F0.00098911968348170125
sV\u0932\u0935\u0930
p6
F0.00075700227100681302
sV\u0935\u0930\u094d\u0915\u0936\u0949\u092a
p7
F0.00075700227100681302
sV\u0917\u0924\u093f
p8
F1.530658591975776
sV\u092a\u0921\u093c\u0947
p9
F0.00098911968348170125
sV\u092a\u093e\u0924\u0940\u0964
p10
F0.0045420136260408781
sV\u092a\u0921\u093c\u0940
p11
F0.00098911968348170125
sV\u0926\u0941\u0915\u094d\u0915\u093e
p12
F0.00075700227100681302
sV\u092b\u0948\u092e\u093f\u0932\u0940
p13
F1.530658591975776
sV\u0928\u093f\u0936\u094d\u091a\u093f\u0924
p14
F1.3066271018793274
sV\u0925\u093f\u090f\u091f\u0930\u094b\u0902
p15
F0.00075700227100681302
sV\u0938\u0939\u0947\u091c\u0928\u0947
p16
F0.00098911968348170125
sV\u0915\u0930\u093f\u092f\u0930
p17
F1.1479939439818321
sV\u0925\u092e\u0928\u0947
p18
F0.00098911968348170125
sV\u0905\u0939\u092e
p19
F0.002967359050445104
sV\u092a\u0921\u093c\u093e
p20
F0.00098911968348170125
sV\u0926\u0947\u0928\u0947
p21
F3.0613171839515521
sV\u092c\u091a\u093e
p22
F0.00075700227100681302
sV\u092c\u0947\u0936\u0915
p23
F1.3066271018793274
sV\u0917\u0940\u0924\u0915\u093e\u0930
p24
F0.00098911968348170125
sV\u0925\u093f\u0905\u091f\u0930
p25
F0.00075700227100681302
sV\u092e\u0941\u0936\u094d\u0915\u093f\u0932
p26
F0.0022710068130204391
sV\u092e\u0942\u200c\u093f\u0930\u094d\u0924\u094d\u0924
p27
F0.00098911968348170125
sV\u0938\u092e\u0930\u094d\u0925\u0928
p28
F0.00098911968348170125
sV\u092e\u093e\u0939\u0940
p29
F0.00075700227100681302
sV\u092c\u091a\u094d\u091a\u094b\u0902
p30
F0.00098911968348170125
sV\u092a\u094d\u0930\u092d\u093e\u0935
p31
F1.3066271018793274
sV\u0935\u0930\u0941\u0923
p32
F0.001514004542013626
sV\u092e\u0939\u0938\u0942\u0938
p33
F0.0030280090840272521
sV\u0935\u093f\u091c\u092f
p34
F1.3066271018793274
sV\u092c\u093f\u0936\u094d\u0935\u093e\u0938
p35
F0.00098911968348170125
sV\u092a\u0928\u093e\u0917
p36
F0.00098911968348170125
sV\u0928\u093f\u0930\u094d\u092e\u093e\u0924\u093e
p37
F0.0045420136260408781
sV\u092c\u0921\u093c\u0947
p38
F0.002967359050445104
sV\u0926\u0947\u0928\u093e
p39
F0.001514004542013626
sV\u092c\u0921\u093c\u0940
p40
F0.0019782393669634025
sV\u0907\u0938\u0915\u0947
p41
F0.0030280090840272521
sV\u092c\u0921\u093c\u093e
p42
F0.00075700227100681302
sV\u0939\u093e\u0925\u094b\u0902
p43
F0.00075700227100681302
sV\u0939\u0949\u0932
p44
F0.0030280090840272521
sV100
p45
F0.00075700227100681302
sV\u092a\u0921\u093c\u0928\u0947
p46
F2.6132542037586548
sV\u0930\u0902\u0917\u0940
p47
F0.00075700227100681302
sV\u091a\u0940\u0916\u0928\u093e
p48
F0.00075700227100681302
sV\u0915\u092e\u0940
p49
F0.00075700227100681302
sV\u0926\u093f\u0932\u093e\u0924\u0940
p50
F0.00075700227100681302
sV\u0939\u0949\u091f
p51
F1.530658591975776
sV\u0916\u093e
p52
F0.00075700227100681302
sV\u0932\u093f\u092f\u0947
p53
F0.00075700227100681302
sV\u092a\u094d\u0930\u0949\u0921\u0915\u094d\u091f
p54
F0.00075700227100681302
sV\u0915\u094b\u091a
p55
F0.00098911968348170125
sV\u0905\u0902\u091c\u093e\u092e
p56
F0.00075700227100681302
sV\u0936\u093e\u0939\u093f\u0926
p57
F0.0019782393669634025
sV\u091c\u0940
p58
F0.001514004542013626
sV\u0915\u094b\u0908
p59
F13.775927327781984
sV\u091c\u094b
p60
F1.403103709311128
sV\u0930\u094b\u092e\u0948\u0902\u091f\u093f\u0915
p61
F0.00098911968348170125
sV\u0915\u094d\u0932\u093f\u0915
p62
F0.00075700227100681302
sV\u0909\u0938\u0915\u0940
p63
F1.530658591975776
sV\u092a\u0924\u093f
p64
F0.001514004542013626
sV\u092a\u0924\u093e
p65
F0.0022710068130204391
sV\u0909\u0938\u0915\u0947
p66
F0.001514004542013626
sV\u0926\u093f\u0916\u093e\u092f\u093e\u0964
p67
F0.00075700227100681302
sV\u0924\u092d\u0940
p68
F0.0022710068130204391
sV\u0938\u0924\u094d\u0924\u0930
p69
F1.3066271018793274
sV\u092e\u0941\u0917\u094d\u0927\u093e
p70
F0.00075700227100681302
sV\u0924\u0940\u0938\u0930\u0940
p71
F0.00075700227100681302
sV\u091c\u091c
p72
F0.00075700227100681302
sV\u0924\u0915\u0928\u0940\u0915
p73
F0.00075700227100681302
sV\u0924\u0940\u0938\u0930\u0947
p74
F0.00075700227100681302
sV\u0906\u0908\u0902
p75
F0.00098911968348170125
sV\u0915\u0930\u093e\u092f\u093e
p76
F0.001514004542013626
sV\u091a\u094c\u0925\u0940
p77
F0.00075700227100681302
sV\u0909\u0928\u0938\u0947
p78
F0.001514004542013626
sV\u092e\u093e\u0908
p79
F0.00075700227100681302
sV(\u0938\u093e\u0930\u093e
p80
F0.00075700227100681302
sV\u0938\u0924\u094d\u0924\u093e
p81
F0.00098911968348170125
sV\u091c\u093e
p82
F1.7857683573050718
sV\u0916\u0941\u0926
p83
F2.6786525359576081
sV\u0907\u0915\u094d\u0915\u093e
p84
F0.00075700227100681302
sV\u090f\u0915\u094d\u0938
p85
F0.00075700227100681302
sV\u092c\u093f\u0916\u0930\u0928\u0947
p86
F0.00098911968348170125
sV\u091c\u092f
p87
F0.00075700227100681302
sV\u091c\u092c
p88
F2.1777118364655457
sV\u092e\u0941\u0930\u093e\u0926
p89
F0.00075700227100681302
sV\u0917\u093e\u0928\u0947
p90
F1.0204390613171839
sV\u0905\u0915\u094d\u0937\u092f
p91
F1.1479939439818321
sV\u0915\u0948\u0938\u0947
p92
F0.001514004542013626
sV\u0928\u094d\u092f\u0942
p93
F0.00098911968348170125
sV\u0926\u0930\u094d\u091c\u0928
p94
F1.530658591975776
sV\u0926\u0942\u0938\u0930\u0940
p95
F0.00075700227100681302
sV\u0909\u0924\u094d\u0924\u0947\u091c\u093f\u0924
p96
F0.00075700227100681302
sV\u0938\u093f\u0928\u0947\u092e\u0948\u091f\u094b\u0917\u094d\u0930\u093e\u092b\u0940
p97
F0.00098911968348170125
sV\u092a\u0940\u091f
p98
F0.00075700227100681302
sV\u0930\u093e\u092e\u0942
p99
F0.0019782393669634025
sV\u092b\u0947\u0928\u094b\u092e\u0947\u0928\u0928.
p100
F0.00075700227100681302
sV\u092c\u0932\u094d\u0915\u093f
p101
F0.0019782393669634025
sV\u0932\u094b\u0915\u0947\u0936\u0928
p102
F0.002967359050445104
sV\u0916\u093e\u0928)
p103
F0.00075700227100681302
sV\u0928\u0902\u0917\u093e
p104
F0.00075700227100681302
sV\u0938\u094b\u0939\u093e
p105
F0.0022710068130204391
sV\u0926\u092e\u0926\u093e\u0930
p106
F0.0089020771513353119
sV\u092c\u0928\u093e\u092f\u093e\u0964
p107
F0.00098911968348170125
sV\u0938\u092e\u091d\u0924\u0947
p108
F0.00098911968348170125
sV\u0930\u0947\u0921\u093f\u092f\u094b
p109
F0.0019782393669634025
sV\u0938\u092e\u091d\u0924\u0940
p110
F0.00075700227100681302
sV\u0938\u0924\u094d\u092f\u093e\u0928\u093e\u0936
p111
F0.00075700227100681302
sV\u0926\u0942\u0938\u0930\u093e
p112
F0.00075700227100681302
sV\u0915\u0928\u094d\u092b\u094d\u092f\u0942\u091c
p113
F0.00075700227100681302
sV\u0905\u0917\u0932\u0947
p114
F1.3066271018793274
sV\u0926\u093f\u092e\u093e\u0917
p115
F0.00075700227100681302
sV\u0917\u093e\u0928\u093e
p116
F0.0030280090840272521
sV\u0924\u0948\u092f\u093e\u0930\u0940
p117
F2.2959878879636642
sV\u0938\u0947\u0932\u094d\u0938\u092e\u0948\u0928
p118
F0.001514004542013626
sV\u092c\u0939\u0941\u0924
p119
F0.0059347181008902079
sV\u0938\u092a\u0928\u094b\u0902
p120
F0.00098911968348170125
sV\u0924\u094d\u092f\u093e\u0917\u0915\u0930
p121
F0.00075700227100681302
sV\u0928\u093f\u092d\u093e
p122
F1.3066271018793274
sV\u092c\u0939\u0941\u0932
p123
F0.00098911968348170125
sV\u092b\u0941\u091f\u0947\u091c
p124
F2.2959878879636642
sV\u092c\u093e\u0930\u0947
p125
F0.00098911968348170125
sV\u0935\u0947
p126
F2.6132542037586548
sV\u0926\u0947\u0916\u0928\u0947
p127
F5.3573050719152162
sV\u092c\u093e\u0930\u0940
p128
F0.00075700227100681302
sV\u091a\u094c\u0902\u0915\u093e
p129
F0.00098911968348170125
sV\u0905\u0902\u0926\u093e\u091c..
p130
F0.00098911968348170125
sV\u092c\u093e\u0902\u0927
p131
F0.0052990158970476911
sV\u091a\u0930\u093f\u0924\u094d\u0930\u093e\u0902\u0915\u0928
p132
F0.00098911968348170125
sV,
F3.3164269492808476
sV\u091c\u092e\u0947\u0917\u0940\u0964
p133
F0.00075700227100681302
sV\u0917\u0941\u0930\u0942
p134
F0.00098911968348170125
sV\u0910\u0902\u0921
p135
F0.00075700227100681302
sV\u0926\u094b\u0939\u0930\u093e\u092f\u093e
p136
F0.00098911968348170125
sV\u0938\u093e\u092c\u093f\u0924
p137
F2.6132542037586548
sV\u092b\u0947\u092e
p138
F0.00075700227100681302
sV\u0939\u0942\u0902\u0964
p139
F0.00075700227100681302
sV\u092e\u0932\u094d\u091f\u093f\u092a\u094d\u0932\u0947\u0915\u094d\u0938\u094b\u0902
p140
F0.00075700227100681302
sV\u0913\u0930
p141
F0.0022710068130204391
sV\u0927\u093e\u0930
p142
F0.00098911968348170125
sV\u0913\u092e
p143
F0.00098911968348170125
sV\u092a\u0915\u0921\u093c\u0924\u0940
p144
F0.00075700227100681302
sV\u0909\u092d\u093e\u0930\u093e
p145
F0.00098911968348170125
sV\u0935\u092b\u093e\u0926\u093e\u0930\u0940
p146
F0.00075700227100681302
sV\u092e\u093e\u0902\u091c\u0930\u0947\u0915\u0930
p147
F0.00098911968348170125
sV\u092a\u094d\u0930\u093e\u0930\u094d\u0925\u0928\u093e
p148
F0.00075700227100681302
sV\u0938\u091c\u0940
p149
F0.00098911968348170125
sV\u092e\u093f\u0925\u0941\u0928
p150
F0.002967359050445104
sV\u0926\u0947\u0916\u0928\u093e
p151
F0.00098911968348170125
sV\u0939\u0948\u0930\u093e\u0928\u0940
p152
F0.00075700227100681302
sV\u0935\u0939
p153
F1.530658591975776
sV\u0905\u0915\u094d\u0938\u0930
p154
F0.00075700227100681302
sV\u0935\u093f\u092a\u0941\u0932
p155
F0.00098911968348170125
sV\u0935\u093e\u092a\u0938\u0940
p156
F1.530658591975776
sV\u0930\u0939\u0947\u0917\u093e.
p157
F0.00098911968348170125
sV\u0917\u0940\u0924-\u0938\u0902\u0917\u0940\u0924
p158
F2.6132542037586548
sV\u0905\u092e\u0943\u0924\u093e
p159
F0.00075700227100681302
sV\u0930\u093e\u091c\u0947\u0936
p160
F0.001514004542013626
sV\u0932\u093f\u092f\u093e
p161
F2.6132542037586548
sV\u0927\u092e\u094d\u092e,
p162
F0.00075700227100681302
sV\u092c\u093e\u0924
p163
F4.5919757759273283
sV\u0932\u0947\u0915\u093f\u0928
p164
F4.2858440575321728
sV\u092c\u093e\u0926
p165
F1.1878428198902975
sV\u0935\u0939\u093e\u092c
p166
F0.00098911968348170125
sV\u0938\u093e\u0930\u0947
p167
F0.00098911968348170125
sV\u0905\u0938\u0930
p168
F0.001514004542013626
sV\u092c\u093e\u0930
p169
F1.2026603222666812
sV\u0935\u0939\u093e\u0902
p170
F0.00098911968348170125
sV\u091f\u0940\u0928\u090f\u091c\u0930\u094d\u0938
p171
F1.3066271018793274
sV\u0927\u0921\u093c\u093e\u0915
p172
F0.00075700227100681302
sV\u0932\u093e\u0928\u0947
p173
F0.00098911968348170125
sV\u0915\u094d\u0932\u093e\u0907\u092e\u0947\u0915\u094d\u0938
p174
F2.2959878879636642
sV\u0915\u092d\u0940
p175
F0.0022710068130204391
sV\u0930\u0923\u0935\u0940\u0930
p176
F0.0019782393669634025
sV\u092e\u0939\u093f\u0932\u093e
p177
F0.00098911968348170125
sV\u0905\u0938\u0940\u092e
p178
F0.001514004542013626
sV\u092b\u093f\u0932\u094d\u092e\u0947\u0902
p179
F0.00075700227100681302
sV\u092a\u093e\u0930\u094d\u091f\u0940
p180
F1.3066271018793274
sV\u0926\u0940\u092a\u093f\u0915\u093e
p181
F0.00098911968348170125
sV\u0915\u094d\u0932\u093e\u0908\u092e\u0947\u0915\u094d\u0938
p182
F0.00098911968348170125
sV\u0910\u0915\u094d\u091f\u093f\u0902\u0917
p183
F2.1046555639666922
sV\u0938\u093e\u0930\u093e
p184
F0.00075700227100681302
sV\u091c\u093e\u0928\u0915\u0930
p185
F0.00098911968348170125
sV\u092d\u0930\u092a\u0942\u0930
p186
F0.00098911968348170125
sV\u0939\u093e\u0938\u0928
p187
F0.00098911968348170125
sV\u0926\u0947\u0935\u0940
p188
F0.00098911968348170125
sV\u0917\u093e\u0902\u0927\u0940
p189
F0.001514004542013626
sV\u0926\u0947\u0938\u093e\u0908
p190
F0.001514004542013626
sV\u0938\u093e\u0917\u0930
p191
F0.00075700227100681302
sV\u0916\u093f\u0938\u0915\u093e\u0908
p192
F0.00075700227100681302
sV\u0939\u0932\u094d\u0915\u0940
p193
F1.3066271018793274
sV\u0905\u0916\u094d\u0924\u0930
p194
F0.001514004542013626
sV\u0906\u0915\u094d\u0930\u094b\u0936
p195
F0.00098911968348170125
sV\u0915\u0902\u092a\u0928\u093f\u092f\u094b\u0902
p196
F0.00075700227100681302
sV\u0910\u0915\u094d\u0936\u0928
p197
F1.530658591975776
sV\u0905\u092a\u093e\u0930
p198
F0.00098911968348170125
sV\u091f\u0942
p199
F1.3066271018793274
sV\u091b\u094b\u091f\u0947
p200
F1.3066271018793274
sV2
F0.00075700227100681302
sV\u0939\u093f\u0930\u093e\u0928\u0940
p201
F0.003956478733926805
sV\u0915\u093e\u091c\u094b\u0932
p202
F0.003956478733926805
sV\u091b\u094b\u091f\u0940
p203
F1.7421694691724365
sV\u0926\u0941\u0930\u0941\u092a\u092f\u094b\u0917
p204
F0.00075700227100681302
sV\u0916\u0941\u0932\u093e\u092a\u0928
p205
F0.00098911968348170125
sV\u0935\u093f\u0932\u0947\u0928
p206
F0.001514004542013626
sV\u0939\u0902\u0938
p207
F0.00075700227100681302
sV\u091b\u094c\u0902\u0915\u093e
p208
F0.00098911968348170125
sV\u092e\u0947\u0918\u093e
p209
F0.001514004542013626
sV\u0939\u093f\u0902\u0926\u0940
p210
F0.00098911968348170125
sV\u0938\u093e\u0907\u0902\u0938
p211
F0.00098911968348170125
sV\u092c\u093e\u0930\u093f\u0936
p212
F0.001514004542013626
sV\u091c\u0949\u0930\u094d\u091c\u093f\u092f\u093e
p213
F0.00098911968348170125
sV\u092c\u094d\u0932\u0942
p214
F0.00075700227100681302
sV\u0928\u093f\u0930\u0902\u091c\u0928
p215
F0.00075700227100681302
sV\u0938\u092e\u0941\u0926\u093e\u092f
p216
F0.00098911968348170125
sV\u0905\u092d\u093f\u0928\u092f
p217
F3.9198813056379822
sV\u0905\u0938\u0930\u093e\u0928\u0940
p218
F0.001514004542013626
sV\u092c\u091f\u094b\u0930\u0940\u0964
p219
F0.00075700227100681302
sV\u092a\u0939\u091a\u093e\u0928\u0928\u0947
p220
F0.00075700227100681302
sV\u0939\u0930\u0940
p221
F0.00098911968348170125
sV\u092e\u091a\u093e\u0928\u0947
p222
F0.00075700227100681302
sV\u0930\u0941\u092a
p223
F0.00098911968348170125
sV\u0930\u0941\u0916
p224
F0.001514004542013626
sV\u0921\u093e\u092f\u0930\u0947\u0915\u094d\u091f\u0930
p225
F2.2959878879636637
sV-
F2.4873202119606361
sV\u0928\u093f\u0915\u0932\u0924\u093e
p226
F1.3066271018793274
sV\u0905\u091c\u0940\u091c
p227
F0.00075700227100681302
sV\u091a\u094c\u092c\u0947
p228
F0.002967359050445104
sV\u092e\u0941\u0902\u092c\u0908
p229
F0.001514004542013626
sV\u091c\u0928\u0924\u093e
p230
F2.6132542037586548
sV\u090f\u0915\u094d\u091f\u0930\u094d\u0938
p231
F0.00075700227100681302
sV\u092c\u094d\u092f\u093e\u0939
p232
F0.0019782393669634025
sV\u0938\u0939\u0940\u0902
p233
F0.00075700227100681302
sV\u0915\u094d\u092f\u094b\u0902\u0915\u093f
p234
F0.00075700227100681302
sV\u0935\u093f\u0926\u094d\u092f\u093e
p235
F2.6132542037586548
sV\u0938\u0932\u092e\u093e\u0928
p236
F2.6132542037586548
sV\u0926\u094b\u0938\u094d\u0924
p237
F0.00075700227100681302
sV\u0916\u0942\u092c\u0938\u0942\u0930\u0924
p238
F1.3066271018793274
sV\u0915\u092a\u0942\u0930
p239
F1.530658591975776
sV\u092e\u0932\u094d\u091f\u093f\u0938\u094d\u091f\u093e\u0930\u0930
p240
F0.00075700227100681302
sV\u091c\u093e\u0924\u0940
p241
F2.6786525359576081
sV\u091c\u093e\u0924\u0947
p242
F1.91332323996972
sV\u0925\u0940..
p243
F0.00075700227100681302
sV\u0938\u0902\u0917\u0940\u0924\u0915\u093e\u0930\u094b\u0902
p244
F0.00075700227100681302
sV\u092e\u093e\u0902\u0917\u0915\u0930
p245
F0.00098911968348170125
sV\u092c\u094d\u0935\u0949\u092f
p246
F0.00098911968348170125
sV\u092b\u093e\u0907\u0928\u0932
p247
F0.00075700227100681302
sV\u0938\u094d\u0935\u093e\u0902\u0917
p248
F0.00075700227100681302
sV\u0932\u0940\u0932\u093e
p249
F0.0019782393669634025
sV\u0915\u093f\u0938\u0940
p250
F1.2026603222666812
sV\u0905\u0902\u0926\u093e\u091c
p251
F0.0019782393669634025
sV\u0928\u093e\u092e\u0940
p252
F0.00075700227100681302
sV\u0938\u0915\u0924\u093e\u0964
p253
F1.3066271018793274
sV\u092a\u0902\u091c\u093e\u092c
p254
F0.00098911968348170125
sV\u0905\u0928\u0941\u0930\u093e\u0917
p255
F0.00098911968348170125
sV\u091c\u0949\u0915\u0940
p256
F0.00098911968348170125
sV\u091f\u094d\u0935\u093f\u0938\u094d\u091f
p257
F0.00075700227100681302
sV\u0925\u0921
p258
F0.00075700227100681302
sV\u092a\u093e\u090f
p259
F0.0052990158970476911
sV\u092e\u094b\u0939\u093f\u0924
p260
F0.00075700227100681302
sV\u0905\u0902\u0917\u094d\u0930\u0947\u091c\u0940
p261
F0.00075700227100681302
sV\u0924\u0930\u094d\u0915
p262
F0.00075700227100681302
sV\u0935\u093f\u0936\u0947\u0937\u0924\u093e
p263
F0.00098911968348170125
sV\u0917\u094b\u0935\u093e
p264
F0.00075700227100681302
sV\u092e\u091a\u093e\u0924\u0947
p265
F0.00075700227100681302
sV\u0932\u0949\u0928\u094d\u091a
p266
F0.00075700227100681302
sV\u0925\u0940\u0964
p267
F3.0613171839515521
sV\u0926\u093f\u0916\u0924\u0947
p268
F0.00075700227100681302
sV\u091f\u093f\u0915
p269
F0.001514004542013626
sV\u0926\u093f\u092f\u093e\u0964
p270
F3.9198813056379822
sV\u091c\u093e\u0924\u093e
p271
F0.0022710068130204391
sV\u092e\u094c\u0924
p272
F0.00075700227100681302
sV\u092a\u093e\u0938
p273
F1.530658591975776
sV\u092c\u0940\u0924
p274
F0.00075700227100681302
sV\u0936\u093e\u092e\u093f\u0932
p275
F1.3066271018793274
sV\u0915\u094c\u0936\u093f\u0915
p276
F0.00098911968348170125
sV\u0920\u0942\u0902\u0938\u093e
p277
F0.001514004542013626
sV\u092b\u094d\u0930\u093e\u0908'
p278
F0.00098911968348170125
sV\u0906\u091c
p279
F0.00098911968348170125
sV\u091c\u0939\u093e\u0902
p280
F0.00098911968348170125
sV\u0906\u0908
p281
F2.6132542037586548
sV\u0917\u0926\u0930
p282
F0.00098911968348170125
sV\u0906\u090f
p283
F1.91332323996972
sV\u0906\u0930
p284
F0.00075700227100681302
sV\u0906\u0938
p285
F0.00075700227100681302
sV\u092a\u091f\u0915\u0925\u093e
p286
F1.3066271018793274
sV\u0906\u0920
p287
F0.00098911968348170125
sV\u0932\u093e\u0915\u0930
p288
F1.3066271018793274
sV\u0906\u092a
p289
F1.530658591975776
sV\u0906\u092e
p290
F0.00075700227100681302
sV\u092a\u094d\u0930\u0924\u093e\u092a
p291
F0.00098911968348170125
sV\u091c\u0947\u0932
p292
F0.00075700227100681302
sV\u0915\u0902\u092a\u094d\u092f\u0942\u091f\u0930
p293
F0.001514004542013626
sV\u0935\u0949\u091f\u0930
p294
F0.00098911968348170125
sV\u092c\u093f\u0917
p295
F1.3066271018793274
sV\u091c\u093e\u0928\u0924\u0947
p296
F0.00098911968348170125
sV\u0939\u0948\u0930\u0924\u0905\u0902\u0917\u0947\u091c
p297
F0.00098911968348170125
sV\u0938\u0947\u0915\u094d\u0938
p298
F0.00075700227100681302
sV\u092e\u094d\u092f\u0942\u091c\u093f\u0915
p299
F6.5331355093966366
sV\u0920\u0942\u0902\u0938\u0947
p300
F0.001514004542013626
sV\u092e\u0947\u0938\u093f\u091c
p301
F1.3066271018793274
sV\u0914\u0930\u0924
p302
F0.00098911968348170125
sV\u0936\u0941\u0915\u094d\u0930\u0935\u093e\u0930
p303
F0.00075700227100681302
sV\u092c\u0924\u093e\u0915\u0930
p304
F0.00075700227100681302
sV\u0905\u0935\u0924\u093e\u0930
p305
F0.00098911968348170125
sV\u092c\u091a\u0947
p306
F0.001514004542013626
sV\u092e\u0928
p307
F0.00098911968348170125
sV\u091f\u0947\u0928
p308
F0.0019782393669634025
sV\u0939\u0948\u0902
p309
F1.3066271018793272
sV\u092e\u0924
p310
F0.00075700227100681302
sV\u0935\u0940\u0930
p311
F0.00098911968348170125
sV\u092b\u093c\u093f\u200d\u0932\u094d\u200d\u092e\u0915\u093e\u0930
p312
F0.00098911968348170125
sV\u0926\u0941\u0930\u094d\u092d\u093e\u0917\u094d\u092f
p313
F0.00075700227100681302
sV\u0939\u094b\u0917\u093e,
p314
F0.00075700227100681302
sV\u092c\u0928\u093e
p315
F1.530658591975776
sV\u092e\u0939\u093f\u0932\u093e\u0913\u0902
p316
F0.00098911968348170125
sV\u092c\u0928\u0947
p317
F6.1226343679031041
sV\u0932\u094b\u0917
p318
F0.001514004542013626
sV\u0938\u093f\u0935\u0930\u092e\u0928
p319
F0.00098911968348170125
sV\u091a\u093e\u0939\u093f\u090f
p320
F1.530658591975776
sV\u092c\u0928\u0940
p321
F3.0613171839515521
sV\u092e\u093e\u0902\u0917
p322
F0.00098911968348170125
sV\u0924\u0921\u093c\u0915\u093e
p323
F0.00075700227100681302
sV\u0932\u093e\u0930\u093e
p324
F0.00098911968348170125
sV\u0939\u0948\u0964
p325
F1.3066271018793274
sV\u0938\u0902\u0917\u0940\u0924
p326
F1.0204390613171839
sV\u0909\u0928\u094d\u0928\u0940\u0938\u0935\u0940\u0902
p327
F0.00075700227100681302
sV\u0910\u0938\u0940
p328
F6.1226343679031041
sV\u0910\u0938\u0947
p329
F1.8367903103709313
sV\u0936\u094d\u092f\u093e\u092e\u0915
p330
F0.00098911968348170125
sV\u0930\u093f\u092f\u093e\u0928
p331
F0.00098911968348170125
sV\u0924\u092c\u094d\u092c\u0942
p332
F0.002967359050445104
sV\u0932\u093f\u092f\u093e\u0964
p333
F0.001514004542013626
sV\u091c\u093e\u092b\u0930\u0940
p334
F0.00075700227100681302
sV\u091a\u0902\u0926\u0928
p335
F0.00098911968348170125
sV\u0938\u0947\u0932\u093f\u0928\u093e
p336
F0.0019782393669634025
sV\u091a\u0915\u094d\u0930\u0935\u0930\u094d\u0924\u0940
p337
F0.00098911968348170125
sV\u092b\u0941\u091f\u093f\u091c
p338
F0.00075700227100681302
sV\u0905\u0902\u0924
p339
F0.0037850113550340651
sV\u092c\u0947\u091f\u0947
p340
F1.1479939439818321
sV\u0938\u093e\u0915\u093e\u0930
p341
F0.00075700227100681302
sV\u092c\u0947\u091f\u0940
p342
F0.00075700227100681302
sV\u092e\u0947\u0938\u0947\u091c
p343
F1.3066271018793274
sV\u0916\u094b\u0915\u0930
p344
F0.00075700227100681302
sV\u0935\u093f\u0930\u093e\u0932
p345
F0.0019782393669634025
sV\u0917\u092f\u093e\u0964
p346
F1.3066271018793274
sV\u0915\u093f\u0930\u0926\u093e\u0930
p347
F1.0204390613171839
sV\u0938\u0941\u0926\u0940\u092a
p348
F0.00098911968348170125
sV\u0926\u0947\u0902
p349
F0.00075700227100681302
sV\u0906\u0930\u091c\u0947
p350
F0.00098911968348170125
sV\u092a\u0930\u0947
p351
F0.0037850113550340651
sV\u0915\u094b\u0936\u093f\u0936
p352
F1.530658591975776
sV\u092c\u093e\u0915\u0940
p353
F4.5919757759273283
sV\u0928\u093f\u0915\u0932
p354
F1.3066271018793274
sV\u092e\u0948\u0902
p355
F0.00075700227100681302
sV\u0938\u094d\u091f\u0942\u0921\u0902\u091f
p356
F0.001514004542013626
sV\u092c\u093e\u0902\u0927\u0947\u0902
p357
F0.00075700227100681302
sV\u0930\u094b\u0932\u094d\u0938
p358
F0.00075700227100681302
sV\u0906\u092e\u093f\u0930
p359
F0.0019782393669634025
sV\u092e\u094c\u0915\u0947
p360
F0.00098911968348170125
sV\u092d\u0932\u0947
p361
F1.530658591975776
sV\u0938\u0947\u0915\u0902\u0921
p362
F0.00075700227100681302
sV\u0935\u093f\u0915\u093e\u0938
p363
F0.00098911968348170125
sV\u0930\u0942\u092a
p364
F2.6132542037586548
sV\u0939\u0938\u0940\u0928\u093e
p365
F0.00075700227100681302
sV\u0915\u094b\u0921\u0915
p366
F0.00098911968348170125
sV\u092a\u0938\u0902\u0926
p367
F2.6132542037586548
sV\u0936\u093e\u0928\u0926\u093e\u0930
p368
F2.6132542037586548
sV\u0935\u0939\u0940
p369
F0.00075700227100681302
sV\u092c\u0947\u091f\u093e
p370
F0.00075700227100681302
sV\u091a\u094d\u092f\u0942\u0902-\u091a\u094d\u092f\u0942\u0902
p371
F0.00075700227100681302
sV\u0935\u093e\u0932\u093e
p372
F0.001514004542013626
sV\u0915\u0930\u0928\u0940
p373
F1.3066271018793274
sV\u0915\u0930\u0928\u0947
p374
F2.1429220287660864
sV\u0925\u093e
p375
F1.1479939439818321
sV\u0905\u0927\u093f\u0915\u093e\u0930\u0940
p376
F0.00075700227100681302
sV\u0915\u0939\u093e\u0928\u093f\u092f\u093e\u0902
p377
F0.00075700227100681302
sV\u092d\u093e\u0930\u0924\u0940\u092f
p378
F0.0019782393669634025
sV\u0935\u094d\u092f\u0935\u0938\u094d\u0925\u093e
p379
F0.00098911968348170125
sV\u092a\u0930\u094d\u0926\u0947
p380
F0.001514004542013626
sV\u0906\u092a\u0928\u0947
p381
F0.001514004542013626
sV\u091c\u093e\u090f\u0902\u0964
p382
F0.00098911968348170125
sV\u092a\u0928\u092a\u0924\u0947
p383
F0.00075700227100681302
sV\u0926\u092c\u0902\u0917
p384
F0.00075700227100681302
sV\u0928\u0942\u0928,
p385
F0.00075700227100681302
sV\u092a\u0940\u091b\u0947
p386
F0.00075700227100681302
sV\u0925\u0947
p387
F0.00075700227100681302
sV\u0925\u0940
p388
F3.0613171839515521
sV\u0935\u093e\u0932\u0947
p389
F7.8397626112759644
sV\u0909\u0924\u0928\u093e
p390
F0.00075700227100681302
sV\u0926\u0930\u094d\u0936\u0915\u094b\u0902
p391
F2.0773223748242673
sV\u0915\u0930\u0928\u093e
p392
F0.0030280090840272521
sV\u0935\u093e\u0932\u0940
p393
F1.3066271018793274
sV\u0925\u093e\u0964
p394
F3.0613171839515521
sV\u0920\u094b\u0938
p395
F0.00075700227100681302
sV\u0939\u093f\u0902\u0938\u093e
p396
F0.00075700227100681302
sV\u092d\u0942\u0932
p397
F1.530658591975776
sV\u0938\u094d\u091f\u093e\u0930
p398
F0.0037850113550340651
sV\u092b\u094d\u0930\u0947\u0936
p399
F0.00098911968348170125
sV\u0930\u0916
p400
F0.001514004542013626
sV\u0909\u0928\u094d\u0939\u094b\u0902\u0928\u0947
p401
F3.1359050445103858
sV\u0921\u0947\u0922\u093c
p402
F0.00075700227100681302
sV\u0915\u093f\u0902\u0917\u094d\u0938\u0932\u0947
p403
F0.00075700227100681302
sV\u0921\u093f\u0932\u093f\u0935\u0930\u0940
p404
F1.530658591975776
sV\u0906\u090f\u0964
p405
F0.001514004542013626
sV\u0928\u093e\u092f\u0915
p406
F0.001514004542013626
sV\u091c\u094c\u0939\u0930
p407
F0.00098911968348170125
sV\u092e\u0928\u094b\u0930\u0902\u091c\u0915
p408
F0.00098911968348170125
sV\u0930\u0939
p409
F0.0068130204390613172
sV\u0905\u092d\u093f\u091c\u0940\u0924
p410
F0.00098911968348170125
sV/
F0.00075700227100681302
sV\u0930\u0923
p411
F0.00075700227100681302
sV\u0930\u091f\u093e\u090f
p412
F0.00075700227100681302
sV\u0935
F1.530658591975776
sV\u090f\u0915\u094d\u091f\u093f\u0902\u0917
p413
F0.00098911968348170125
sV\u0939\u0941\u0906,
p414
F0.00075700227100681302
sV\u0907\u0938\u0947
p415
F1.3066271018793274
sV\u0926\u0943\u0936\u094d\u092f
p416
F1.3066271018793274
sV\u092e\u0939\u0924\u094d\u0935\u092a\u0942\u0930\u094d\u0923
p417
F0.00098911968348170125
sV\u0915\u0939\u0924\u0940.
p418
F0.00075700227100681302
sV\u0909\u092d\u0930\u0928\u0947
p419
F0.00075700227100681302
sV\u0936\u0939\u0930\u0940
p420
F0.00098911968348170125
sV\u0938\u094d\u092e\u0949\u0932
p421
F0.00075700227100681302
sV\u0938\u094d\u091f\u0902\u091f
p422
F0.002967359050445104
sV\u092a\u094d\u0930\u0938\u0902\u0917
p423
F3.9198813056379822
sV\u0909\u0920\u0947
p424
F0.00075700227100681302
sV\u092d\u093e\u0930\u0940
p425
F0.00098911968348170125
sV\u0928\u0939\u0940\u0902\u0964
p426
F3.0487965710517639
sV\u0926\u0941\u0916,
p427
F0.00075700227100681302
sV\u0932\u0902\u092c\u093e
p428
F1.3066271018793274
sV\u092e\u093f\u0932\u0928\u0947
p429
F0.0022710068130204391
sV\u0938\u094b\u091a\u0915\u0930
p430
F0.00075700227100681302
sV\u0938\u0902\u092f\u0924
p431
F0.00098911968348170125
sV(\u0930\u093e\u091c\u0947\u0936
p432
F0.00075700227100681302
sV\u0917\u094d\u0930\u0941\u092a
p433
F0.00098911968348170125
sV\u0917\u0939\u0930\u093e\u0908
p434
F0.00098911968348170125
sV\u092c\u093f\u0916\u0947\u0930
p435
F0.00075700227100681302
sV\u0924\u094b
p436
F4.2093111279333835
sV\u092a\u0940\u0930\u093f\u092f\u0921-\u092a\u0940\u0930\u093f\u092f\u0921
p437
F0.00075700227100681302
sV\u0938\u093f\u0935\u093e
p438
F0.00098911968348170125
sV\u0924\u0942
p439
F0.00075700227100681302
sV\u0938\u092e\u091d\u093e\u0928\u0947
p440
F0.00075700227100681302
sV\u0926\u0947\u0902\u0964
p441
F0.00098911968348170125
sV\u0938\u093f\u0935\u0928
p442
F0.00075700227100681302
sV\u0911\u092a\u094d\u0936\u0928
p443
F0.00075700227100681302
sV\u0924\u092c
p444
F1.3066271018793274
sV\u0906\u092f\u0902\u0917\u093e\u0930
p445
F0.00075700227100681302
sV\u0936\u094b\u0930
p446
F0.001514004542013626
sV\u092c\u093e\u0924\u0947\u0902
p447
F0.00098911968348170125
sV\u0938\u0902\u0927\u094d\u092f\u093e
p448
F0.00098911968348170125
sV\u092e\u0930\u094d\u091a\u0947\u0902\u091f
p449
F0.00075700227100681302
sV\u092e\u093e\u0924\u094d\u0930
p450
F0.00075700227100681302
sV\u0938\u094d\u0935\u093e\u092d\u093e\u0935\u093f\u0915\u0924\u093e
p451
F0.00098911968348170125
sV\u092a\u0939\u0941\u0902\u091a\u0947
p452
F0.00075700227100681302
sV\u092a\u0939\u0941\u0902\u091a
p453
F0.00075700227100681302
sV\u092d\u094b\u092a\u093e\u0932\u0940
p454
F0.00098911968348170125
sV\u092a\u093e\u0924\u0947
p455
F0.001514004542013626
sV\u0932\u0902\u092c\u0947
p456
F3.9198813056379822
sV\u0932\u0902\u092c\u0940
p457
F0.00075700227100681302
sV\u091b\u094b\u0921\u093c
p458
F0.0022710068130204391
sV\u092e\u093f\u0932\u0928\u093e
p459
F0.00098911968348170125
sV\u0938\u0940\u092e\u093e
p460
F0.00098911968348170125
sV\u092b\u0949\u0930\u094d\u092e\u0941\u0932\u093e
p461
F0.00098911968348170125
sV\u0924\u0915
p462
F1.7421694691724365
sV\u0928\u093e\u092e
p463
F3.0613171839515521
sV\u0938\u0948\u0921
p464
F0.00075700227100681302
sV\u0930\u091c\u0924
p465
F0.0019782393669634025
sV\u0906\u0908\u0902\u0964
p466
F1.3066271018793274
sV\u0938\u093f\u0926\u094d\u0927
p467
F0.00098911968348170125
sV\u0921\u093e\u0907\u0930\u0947\u0915\u094d\u091f\u0930
p468
F6.887963663890992
sV\u0930\u094b\u0936\u0928\u0940
p469
F0.00098911968348170125
sV\u092c\u0947\u092c\u0938
p470
F0.001514004542013626
sV\u0905\u092b\u0938\u094b\u0938
p471
F0.001514004542013626
sV\u0930\u091c\u093e
p472
F0.00075700227100681302
sV\u0932\u0935\u0930\u094d\u0938
p473
F0.00075700227100681302
sV\u0938\u0924\u0940\u0936
p474
F0.00098911968348170125
sV70-80
p475
F0.00075700227100681302
sV\u0938\u0902\u0935\u093e\u0926\u094b\u0902
p476
F1.530658591975776
sV\u0938\u093e\u0907\u0932\u0947\u0902\u091f
p477
F0.00075700227100681302
sV\u0915\u093f\u0938\u093e\u0928
p478
F0.0019782393669634025
sV\u091a\u093f\u0932\u094d\u0932\u093e\u0928\u093e
p479
F0.00075700227100681302
sV\u0938\u0942\u0930\u094d\u092f\u093e
p480
F0.00098911968348170125
sV\u092a\u093e\u0908\u0964
p481
F0.0022710068130204391
sV\u0915\u0948\u0926
p482
F0.00098911968348170125
sV\u0915\u0948\u0936
p483
F0.00075700227100681302
sV\u0938\u0941\u0930\u0942\u0930
p484
F0.00098911968348170125
sV\u091c\u094b\u0930\u0926\u093e\u0930
p485
F0.00098911968348170125
sV\u092a\u094d\u0930\u093f\u0902\u0938\u093f\u092a\u0932
p486
F0.0019782393669634025
sV\u0938\u0915\u0947\u0964
p487
F0.00075700227100681302
sV\u091c\u0930\u093f\u090f
p488
F0.00098911968348170125
sV\u0916\u0940\u0902\u091a\u093e
p489
F0.00075700227100681302
sV\u0916\u094c\u092b
p490
F0.00075700227100681302
sV\u091c\u094b\u0936\u0940
p491
F0.0019782393669634025
sV\u0917\u0917\u0928\u091a\u0941\u092e\u094d\u092c\u0940
p492
F0.00098911968348170125
sV\u0926\u0947\u0916\u093e
p493
F0.001514004542013626
sV\u0939\u0948,
p494
F3.9198813056379822
sV\u0905\u091a\u0942\u0915
p495
F0.00075700227100681302
sV\u092c\u0947\u0939\u0924\u0930
p496
F0.0030280090840272521
sV\u0930\u0916\u093e
p497
F0.0019782393669634025
sV\u092a\u094d\u0930\u093e\u092a\u094d\u0924\u093f
p498
F0.00098911968348170125
sV\u091c\u093e\u090f\u0964
p499
F0.00075700227100681302
sV\u0915\u0902\u0927\u094b\u0902
p500
F0.00075700227100681302
sV\u0928\u093f\u0930\u093e\u0936
p501
F0.0030280090840272521
sV\u0915\u0930\u0924\u093e
p502
F0.001514004542013626
sV\u0915\u0948\u092e\u0930\u093e
p503
F0.0030280090840272521
sV\u0938\u092a\u0928\u0947
p504
F0.001514004542013626
sV\u0921\u093f\u0932\u0940\u091f
p505
F0.00075700227100681302
sV\u0932\u0915\u095c\u0940{\u0917\u0948\u0938}\u0938\u0947
p506
F0.00075700227100681302
sV\u0930\u0939\u0940\u0964
p507
F1.530658591975776
sV\u0921\u093e\u0935\u0930
p508
F0.00098911968348170125
sV\u092a\u093e\u0902\u091a
p509
F0.00098911968348170125
sV\u0926\u0947\u0916\u0940
p510
F0.001514004542013626
sV\u0930\u094b\u0932
p511
F2.9696070497257439
sV\u091f\u0930\u094d\u092e\u094d\u0938
p512
F0.00098911968348170125
sV\u092c\u0949\u0915\u094d\u0938
p513
F0.001514004542013626
sV\u0935\u093e\u0932\u094b\u0902
p514
F0.00098911968348170125
sV\u091c\u093e\u090f\u0926
p515
F0.00098911968348170125
sV\u091c\u0940\u0924\u093e
p516
F0.00075700227100681302
sV\u092d\u0942\u092e\u093f\u0915\u093e
p517
F2.2865974282888231
sV\u0907\u0928\u094d\u0935\u093e\u0907\u0930\u0928\u094d\u092e\u0902\u091f
p518
F0.00098911968348170125
sV\u0939\u0948?
p519
F0.00075700227100681302
sV\u0939\u094b\u0902\u0920
p520
F0.00075700227100681302
sV\u092c\u094b\u0932\u094b\u0902
p521
F0.00098911968348170125
sV\u0920\u0939\u0930\u0940
p522
F0.00075700227100681302
sV\u092a\u094d\u0930\u0947\u092e\u0940
p523
F0.00075700227100681302
sV\u0921\u093e\u0932\u0947
p524
F0.00075700227100681302
sV\u0926\u093f\u0916\u093e\u0928\u0947
p525
F0.001514004542013626
sV\u0938\u092e\u093e\u090f
p526
F0.00098911968348170125
sV\u092e\u0932\u093f\u0915
p527
F1.3066271018793274
sV\u0938\u092e\u093e\u091c
p528
F0.00075700227100681302
sV\u0926\u093f\u092f\u093e
p529
F3.0487965710517639
sV\u091b\u093f\u092a\u0940
p530
F0.00098911968348170125
sV\u0936\u0930\u094d\u092e\u093e
p531
F0.00098911968348170125
sV\u0916\u0942\u092c
p532
F5.2265084075173096
sV\u092a\u094d\u0930\u0938\u0902\u0917\u094b\u0902
p533
F0.00098911968348170125
sV\u091b\u0924
p534
F0.00075700227100681302
sV\u0907\u0938\u0938\u0947
p535
F1.3066271018793274
sV\u0905\u092e\u093f\u0924\u093e\u092d
p536
F2.6132542037586548
sV\u091b\u0942
p537
F0.00098911968348170125
sV\u0938\u0941\u0936\u093e\u0902\u0924
p538
F0.00098911968348170125
sV\u0909\u0938
p539
F1.3066271018793274
sV\u0930\u093e\u0918\u0935\u0928
p540
F0.00075700227100681302
sV\u0916\u0942\u092c\u093f\u092f\u093e\u0902
p541
F0.00098911968348170125
sV\u0909\u0928
p542
F1.3066271018793274
sV\u091a\u0941\u0938\u094d\u0924
p543
F0.00098911968348170125
sV\u0915\u092e\u0947\u0902\u091f
p544
F0.00098911968348170125
sV\u0938\u094d\u092a\u0940\u0921
p545
F0.00075700227100681302
sV\u0938\u0941\u0930\u0940\u0932\u093e
p546
F0.00098911968348170125
sV\u0938\u094d\u091f\u093e\u0907\u0932
p547
F1.3066271018793274
sV\u0938\u093e\u0939\u092c
p548
F1.3066271018793274
sV\u0905\u092a\u0939\u0930\u0923
p549
F0.00075700227100681302
sV\u092c\u0947\u0928
p550
F0.00075700227100681302
sV\u092a\u094d\u0930\u093e\u092b\u093f\u091f
p551
F0.00075700227100681302
sV\u092b\u0948\u0936\u0928
p552
F0.00075700227100681302
sV\u0915\u0939\u0928\u0947
p553
F0.00098911968348170125
sV\u092e\u092e\u0940
p554
F0.00075700227100681302
sV\u0930\u093f\u0936\u094d\u0924\u0947
p555
F0.00098911968348170125
sV\u0926\u094d\u0935\u093e\u0930\u093e
p556
F0.0022710068130204391
sV\u092e\u0942\u0935\u0940
p557
F1.3066271018793274
sV\u090f\u0928
p558
F0.00075700227100681302
sV\u0915\u094b\u0920\u093e\u0930\u0940
p559
F0.00075700227100681302
sV\u0915\u094d\u092f\u093e
p560
F0.00075700227100681302
sV\u091c\u0941\u092c\u093e\u0902
p561
F1.3066271018793274
sV\u092d\u0917\u0928\u093e\u0928\u0940
p562
F0.00075700227100681302
sV\u0905\u0928\u0941\u0930\u093e\u0927\u093e
p563
F0.00098911968348170125
sV\u0907\u0930\u094d\u0926\u0917\u093f\u0930\u094d\u0926
p564
F1.3066271018793274
sV\u0930\u093f\u0905\u0932
p565
F0.00098911968348170125
sV\u092e\u093f\u0932\u093e
p566
F0.00075700227100681302
sV\u0930\u093f\u0936\u094d\u0924\u094b\u0902
p567
F0.00075700227100681302
sV\u0926\u0943\u0936\u094d\u092f\u094b\u0902
p568
F2.6132542037586548
sV\u0922\u094b\u0932
p569
F0.00075700227100681302
sV\u0909\u0924\u094d\u0924\u0930
p570
F0.00075700227100681302
sV\u090f\u0915
p571
F1.6332838773491594
sV\u0905\u0930\u094d\u091c\u0941\u0928
p572
F0.00075700227100681302
sV\u0906\u0938\u093e\u0928
p573
F0.00075700227100681302
sV\u092a\u094d\u0930\u093f\u092f\u0926\u0930\u094d\u0936\u0928
p574
F0.00075700227100681302
sV\u0938\u092d\u0940
p575
F2.2959878879636642
sV\u0938\u0940\u0928
p576
F1.1479939439818321
sV\u092c\u0947\u091a\u093e\u0930\u093e
p577
F0.00075700227100681302
sV\u092a\u0940\u0922\u093c\u0940
p578
F0.00098911968348170125
sV\u0915\u0932\u093e
p579
F1.530658591975776
sV\u0926\u0942\u0938\u0930\u0947
p580
F0.00075700227100681302
sV,'
p581
F0.0019782393669634025
sV\u0930\u0935\u093f\u091a\u0902\u0926\u094d\u0930\u0928
p582
F0.00098911968348170125
sV\u0926\u094b\u0938\u094d\u0924\u094b\u0902
p583
F0.00075700227100681302
sV\u0938\u0940\u0916
p584
F0.00075700227100681302
sV\u0930\u0942\u0938\u0940
p585
F0.00098911968348170125
sV\u0915\u093e\u0930\u094d\u0924\u093f\u0915
p586
F0.0019782393669634025
sV\u092a\u0947
p587
F0.00075700227100681302
sV\u0915\u0939\u093e\u0902
p588
F0.001514004542013626
sV\u091a\u0932\u093e
p589
F0.00075700227100681302
sV\u092a\u0930
p590
F1.5306585919757758
sV\u0939\u0902\u0938\u0940
p591
F0.00075700227100681302
sV\u092a\u0932
p592
F0.00098911968348170125
sV\u0915\u093e\u091f\u0928\u093e
p593
F0.00075700227100681302
sV\u092a\u0921\u093c\u0924\u0947
p594
F0.001514004542013626
sV\u0930\u094b\u0936\u0928
p595
F0.00098911968348170125
sV\u092a\u0922
p596
F0.00098911968348170125
sV\u0926\u094c\u0921\u093c\u093e\u0908
p597
F0.00075700227100681302
sV\u092b\u093f\u091c\u0942\u0932
p598
F0.00075700227100681302
sV\u0918\u0942\u092e\u0928\u0947
p599
F0.00075700227100681302
sV\u092a\u093f\u091f\u093e\u0930\u0947
p600
F0.00098911968348170125
sV\u0936\u092c\u094d\u0926\u094b\u0902
p601
F0.00075700227100681302
sV\u092c\u093e\u0917\u092c\u093e\u0928
p602
F0.0019782393669634025
sV\u0917\u094c\u0930\u0935
p603
F0.00075700227100681302
sV\u092c\u0941\u0928\u0940
p604
F0.00098911968348170125
sV\u092e\u0947\u0917\u093e
p605
F1.3066271018793274
sV\u0930\u093e\u0939\u0941\u0932
p606
F0.0022710068130204391
sV\u0924\u092e\u093e\u0936\u092c\u0940\u0928
p607
F0.00075700227100681302
sV\u0939\u094b\u091f\u0932
p608
F0.00075700227100681302
sV\u0938\u092e\u091d
p609
F0.0075700227100681302
sV\u0916\u0930\u0947
p610
F0.0019782393669634025
sV\u0935\u093f\u0930\u094b\u0927
p611
F0.00075700227100681302
sV\u0935\u0902\u0936\u0935\u093e\u0926
p612
F0.00075700227100681302
sV\u0916\u0930\u0940
p613
F1.530658591975776
sV\u092c\u0940\u0928\u093e
p614
F0.00075700227100681302
sV\u0924\u0940\u0928
p615
F1.3066271018793274
sV\u0905\u092a\u0928\u093e
p616
F2.6132542037586548
sV\u092e\u0928\u091a\u093e\u0939\u0940
p617
F0.00098911968348170125
sV\u0915\u093f\u092f\u093e\u0964
p618
F1.1479939439818321
sV\u0928\u0938\u0940\u0930\u0942\u0926\u094d\u0926\u0940\u0928
p619
F0.00098911968348170125
sV\u0938\u092e\u092f
p620
F0.00075700227100681302
sV\u0909\u0938\u0928\u0947
p621
F0.0019782393669634025
sV\u092e\u0902\u0939\u0917\u093e\u0908,
p622
F0.00075700227100681302
sV\u0917\u0941\u0902\u091c\u093e\u0907\u0936
p623
F0.0022710068130204391
sV\u0915\u093f\u090f
p624
F0.00075700227100681302
sV\u0905\u092a\u0928\u0940
p625
F1.7421694691724365
sV\u0905\u092a\u0928\u0947
p626
F1.9599406528189911
sV\u0930\u093e\u0937\u094d\u091f\u094d\u0930\u0940\u092f
p627
F0.00098911968348170125
sV\u091a\u093e\u0932\u0942
p628
F1.530658591975776
sV\u0939\u091f\u093e
p629
F0.00075700227100681302
sV\u0921\u0947\u0928\u093f\u0938
p630
F0.00075700227100681302
sV\u0915\u094d\u092f\u094b\u0902
p631
F3.0613171839515521
sV\u0926\u0947\u0915\u0930
p632
F0.00098911968348170125
sV\u0930\u0939\u0947\u0902
p633
F0.00098911968348170125
sV\u0907\u0938\u092e\u0947\u0902
p634
F0.0022710068130204391
sV\u0932\u093e\u0932\u0935\u093e\u0928\u0940
p635
F0.00075700227100681302
sV\u0935\u093e\u0939\u0935\u093e\u0939\u0940
p636
F0.00075700227100681302
sV\u092a\u094d\u0930\u092d\u093e\u0935\u0940
p637
F0.00098911968348170125
sV\u0938\u0942\u0930\u0924
p638
F0.00075700227100681302
sV\u0925\u093f\u090f\u091f\u0930
p639
F0.00075700227100681302
sV\u0917\u0940\u0924\u094b\u0902
p640
F0.00075700227100681302
sV\u0930\u094b\u091c-\u0930\u094b\u091c
p641
F0.00075700227100681302
sV\u092b\u093e\u0907\u0935
p642
F0.0019782393669634025
sV\u092a\u0930\u092b\u093e\u0930\u094d\u092e
p643
F0.00098911968348170125
sV\u091c\u093f\u0938\u0947
p644
F0.00075700227100681302
sV\u0917\u093e\u0902\u0935
p645
F0.00098911968348170125
sV\u0909\u0928\u094d\u0939\u0940\u0902
p646
F0.00098911968348170125
sV\u092b\u094d\u0932\u0948\u0936
p647
F0.00098911968348170125
sV\u091a\u0942\u0915
p648
F0.00075700227100681302
sV\u0938\u0917\u093e
p649
F0.00075700227100681302
sV\u091b\u093e\u090f
p650
F5.2265084075173096
sV\u0921\u093e\u0902\u0938
p651
F1.530658591975776
sV\u091a\u091f\u0930\u094d\u091c\u0940
p652
F0.00075700227100681302
sV\u091b\u093e\u0908
p653
F0.00098911968348170125
sV\u091a\u092f\u0928
p654
F0.00098911968348170125
sV\u0938\u094d\u0924\u092e\u094d\u092d
p655
F0.00075700227100681302
sV\u0935\u093e\u092f\u0930
p656
F0.00098911968348170125
sV\u0905\u0927\u094d\u092f\u092f\u0928
p657
F0.0030280090840272521
sV\u0917\u090f\u0964
p658
F3.82664647993944
sV\u0936\u0947\u091f\u094d\u091f\u0940
p659
F0.00075700227100681302
sV\u0921\u093e\u0902\u091f
p660
F0.00098911968348170125
sV\u092d\u0942\u092e\u093f\u0915\u093e\u0913\u0902
p661
F2.6132542037586548
sV\u0938\u0942\u0930\u0940
p662
F0.00098911968348170125
sV\u0938\u0939\u0940,
p663
F0.00098911968348170125
sV\u0936\u0941\u0930\u0942\u0906\u0924
p664
F0.00098911968348170125
sV\u0915\u092a\u0921\u093c\u094b
p665
F0.00075700227100681302
sV\u0938\u094d\u0932\u092e
p666
F0.0019782393669634025
sV\u0938\u094d\u092a\u0947\u0936\u0932
p667
F0.00075700227100681302
sV\u0939\u0902\u0938\u0924\u0947
p668
F0.00075700227100681302
sV\u0905\u092d\u093f\u0937\u0947\u0915
p669
F0.0019782393669634025
sV\u092d\u091f\u094d\u091f
p670
F1.530658591975776
sV\u0916\u0924\u094d\u092e
p671
F0.00075700227100681302
sV\u092a\u0947\u0902\u091f\u0930
p672
F0.00075700227100681302
sV\u0932\u094b\u0915\u092a\u094d\u0930\u093f\u092f
p673
F0.00098911968348170125
sV\u092c\u0938\u094d\u0924\u0940
p674
F0.00098911968348170125
sV\u092b\u0948\u0915\u094d\u091f\u094d\u0930\u0940
p675
F0.00075700227100681302
sV\u092e\u094b\u0939
p676
F0.00075700227100681302
sV\u092c\u0949\u0932\u093f\u0935\u0941\u0921
p677
F3.82664647993944
sV\u0915\u0948\u0902\u092a\u0938
p678
F0.00075700227100681302
sV\u091a\u092e\u0924\u094d\u0915\u093e\u0930
p679
F0.00075700227100681302
sV\u092b\u093f\u0932\u094d\u092e\u093e\u0902\u0915\u0928
p680
F0.00098911968348170125
sV\u090f\u0902\u091f\u0930\u091f\u0947\u0928\u092e\u0947\u0902\u091f
p681
F0.0022710068130204391
sV\u092c\u0940\u091a
p682
F1.7857683573050718
sV\u092a\u0915\u094d\u0937
p683
F1.530658591975776
sV\u0936\u0916\u094d\u0938
p684
F0.00075700227100681302
sV\u092c\u0941\u0921\u092c\u0915
p685
F0.00075700227100681302
sV\u0936\u094b
p686
F2.6132542037586548
sV\u0928\u093f\u092d\u093e\u0924\u0947
p687
F0.00075700227100681302
sV\u0926\u0947\u0935\u0924\u093e
p688
F0.00075700227100681302
sV\u092a\u0949\u0907\u0902\u091f
p689
F1.3066271018793274
sV\u092c\u0940\u0938
p690
F0.00075700227100681302
sV\u0916\u0941\u0936\u0940
p691
F0.00098911968348170125
sV\u092f\u094b\u0926\u094d\u0927\u093e
p692
F0.00098911968348170125
sV\u092d\u094d\u0930\u092e
p693
F0.00075700227100681302
sV\u0939\u0930\u094d\u0937\u0935\u0930\u094d\u0927\u0928
p694
F0.00098911968348170125
sV\u092e\u093e\u092e\u0932\u0947
p695
F1.3066271018793274
sV\u0935\u0948\u0938\u0947
p696
F0.0030280090840272521
sV\u0921\u0930\u093e\u0928\u0947
p697
F0.00075700227100681302
sV\u092d\u0935\u094d\u092f
p698
F0.00098911968348170125
sV\u0938\u0902\u0935\u093e\u0926
p699
F4.5919757759273283
sV\u0915\u093f\u0930\u0915\u093f\u0930\u0947
p700
F0.00098911968348170125
sV\u092f\u093e\u0926\u0935
p701
F0.00098911968348170125
sV\u0915\u0948\u092e\u0930\u093e\u092e\u0948\u0928
p702
F1.9599406528189911
sV\u0928\u093e\u092f\u093f\u0915\u093e
p703
F1.3066271018793274
sV\u0939\u0902\u0938\u093e\u0928\u0947
p704
F0.00098911968348170125
sV\u092b\u093f\u0932\u094d\u092e\u093e\u0908
p705
F0.00098911968348170125
sV\u0936\u094d\u0930\u0940\u0930\u093e\u092e
p706
F0.00075700227100681302
sV\u0906\u0902\u0916\u094b\u0902
p707
F0.00098911968348170125
sV\u0935\u093e\u0915\u0908
p708
F1.3066271018793274
sV\u0930\u0941\u0915\u093e\u0935\u091f
p709
F0.00075700227100681302
sV\u092c\u0948\u0920\u0947\u0964
p710
F0.001514004542013626
sV\u092c\u0922\u093c\u093e\u092f\u093e
p711
F0.00075700227100681302
sV\u0939\u0948.
p712
F3.9198813056379822
sV\u092d\u0940
p713
F1.4158591975775929
sV\u0925\u094d\u0930\u0940
p714
F0.00098911968348170125
sV\u0939\u094b\u0964
p715
F0.001514004542013626
sV\u0915\u0930\u0923
p716
F0.002967359050445104
sV\u0916\u0924\u0930\u0928\u093e\u0915
p717
F0.0019782393669634025
sV\u0915\u0930\u093e
p718
F0.00075700227100681302
sV\u092e\u093e\u0928\u0940
p719
F0.00075700227100681302
sV\u0915\u093e\u092e
p720
F1.1199660873251378
sV\u0906\u0927\u0940
p721
F0.001514004542013626
sV\u091c\u092c\u0930\u094d\u0926\u0938\u094d\u0924
p722
F0.00098911968348170125
sV\u0938\u091a
p723
F0.00075700227100681302
sV\u092e,
p724
F0.00075700227100681302
sV\u092c\u093f\u0932\u094d\u0915\u0941\u0932
p725
F0.0019782393669634025
sV\u0924\u0930\u0939
p726
F1.1199660873251378
sV\u0924\u0930\u0938
p727
F0.00075700227100681302
sV\u091a\u0941\u0928\u093e
p728
F0.001514004542013626
sV\u092c\u093e\u0924\u094b\u0902
p729
F0.00098911968348170125
sV\u0924\u0930\u092b
p730
F1.3066271018793274
sV\u0938\u0930\u092a\u091f
p731
F0.00098911968348170125
sV\u092c\u0947\u0938\u094d\u091f
p732
F0.00075700227100681302
sV\u092e\u093f\u0932\u0940
p733
F0.00098911968348170125
sV\u0932\u0947\u0928\u0947
p734
F0.00098911968348170125
sV\u0915\u0930\u0947\u0917\u0940\u0964
p735
F0.001514004542013626
sV\u0936\u092c\u094d\u0926
p736
F1.3066271018793274
sV\u0939\u094b\u0902
p737
F0.00098911968348170125
sV\u0906\u0927\u093e
p738
F0.00098911968348170125
sV\u0905\u0917\u0930
p739
F5.7399697199091602
sV\u092a\u0924\u094d\u0928\u0940
p740
F0.00075700227100681302
sV\u0915\u0930\u0947
p741
F0.00075700227100681302
sV\u092b\u093f\u0932\u094d\u092e\u093e\u092f\u093e
p742
F0.00098911968348170125
sV\u0927\u0942\u092a\u093f\u092f\u093e
p743
F1.3066271018793274
sV\u092d\u0930
p744
F1.3066271018793274
sV\u092e\u0939\u093e\u0930\u093e\u0928\u0940
p745
F0.00098911968348170125
sV\u092e\u0947\u0939\u0928\u0924
p746
F0.0019782393669634025
sV\u092d\u093e
p747
F0.00098911968348170125
sV\u0924\u093e\u091c\u0917\u0940
p748
F0.0019782393669634025
sV\u0936\u0941\u0930\u0942
p749
F1.3066271018793274
sV1920
p750
F0.00075700227100681302
sV\u092b\u094d\u0930\u0902\u091f
p751
F0.00098911968348170125
sV\u0932\u0939\u091c\u0947
p752
F0.00098911968348170125
sV\u0936\u0939\u0928\u093e\u091c
p753
F0.00098911968348170125
sV\u092f\u093e\u0926\u0947\u0902
p754
F0.00075700227100681302
sV\u0924\u0940\u0928\u094b\u0902
p755
F0.00075700227100681302
sV\u0908\u0930\u093e\u0928\u0940
p756
F1.3066271018793274
sV\u0926\u0947\u0936-\u092a\u094d\u0930\u0926\u0947\u0936
p757
F0.00075700227100681302
sV\u0926\u0940
p758
F1.3066271018793274
sV3
F0.00098911968348170125
sV\u092a\u0939\u0928\u0947
p759
F0.00098911968348170125
sV\u092d\u091f\u0915
p760
F0.0022710068130204391
sV\u0926\u0947
p761
F1.530658591975776
sV\u0926\u094b
p762
F1.91332323996972
sV\u092a\u094d\u0932\u0938
p763
F0.00098911968348170125
sV\u092b\u0940\u0938\u0926\u0940
p764
F0.00075700227100681302
sV\u092a\u094d\u0932\u0947
p765
F0.00098911968348170125
sV\u0915\u094d\u0932\u093e\u0938
p766
F2.2959878879636642
sV\u0926\u0938
p767
F0.00098911968348170125
sV\u0932\u0947\u0916\u0915,\u0915\u0932\u093e\u0915\u093e\u0930
p768
F0.00075700227100681302
sV\u0930\u093e\u0935\u0932
p769
F1.530658591975776
sV\u0935\u0924\u094d\u0938\u0932
p770
F0.00075700227100681302
sV\u0926\u092e
p771
F5.3573050719152162
sV\u0917\u092f\u093e!
p772
F0.00075700227100681302
sV\u091a\u093e\u0939
p773
F0.0030280090840272521
sV\u092a\u093e\u0902\u0921\u094d\u092f\u093e
p774
F0.00075700227100681302
sV\u0926.\u0905\u092b\u094d\u0930\u0940\u0915\u0940
p775
F0.00098911968348170125
sV\u0909\u0938\u092e\u0947\u0902
p776
F0.00075700227100681302
sV\u092b\u093f\u0932\u094d\u092e\u0940
p777
F0.00075700227100681302
sV\u092b\u0947\u0938
p778
F0.0030280090840272521
sV\u0905\u0930\u094d\u0938\u0947
p779
F3.9198813056379822
sV\u0906\u0938\u092a\u093e\u0938
p780
F0.001514004542013626
sV\u091c\u093e\u0928\u0947
p781
F1.3066271018793274
sV\u091a\u0922\u093c\u0928\u0947
p782
F0.00075700227100681302
sV\u0932\u093f\u0916\u0940
p783
F1.3066271018793274
sV\u0932\u093f\u0916\u0947
p784
F0.00098911968348170125
sV\u092a\u0930\u092e\u0940\u0924
p785
F0.00075700227100681302
sV\u091c\u093e\u0928\u0940
p786
F0.00075700227100681302
sV\u0938\u094d\u091f\u094d\u0930\u093e\u0907\u0915\u0930
p787
F0.00098911968348170125
sV\u0938\u0930\u094d\u0935\u093f\u0938
p788
F0.00075700227100681302
sV\u0915\u094d\u0932\u093e\u0907\u092e\u0948\u0915\u094d\u0938
p789
F1.530658591975776
sV\u0926\u093e\u0902\u0935
p790
F1.3066271018793274
sV\u0926\u0947\u0935\u0917\u0928
p791
F1.3066271018793274
sV\u0909\u0932\u094d\u0932\u093e\u0932
p792
F0.00075700227100681302
sV\u092a\u094d\u0930\u0947\u092e
p793
F2.6132542037586548
sV\u092d\u0947\u0926
p794
F0.00098911968348170125
sV\u0915\u0941\u091b-\u0915\u0941\u091b
p795
F0.00075700227100681302
sV\u092c\u091a\u094d\u091a\u0928
p796
F3.9198813056379822
sV\u0926\u0941\u0930\u094d\u092d\u093e\u0917\u094d\u200d\u092f\u092a\u0942\u0930\u094d\u0923
p797
F0.00075700227100681302
sV\u0926\u093f\u0932\u091a\u0938\u094d\u092a
p798
F0.002967359050445104
sV\u0939\u0949\u0930\u0930
p799
F0.00075700227100681302
sV\u0905\u0902\u0917\u094d\u0930\u0947\u091c,
p800
F0.00075700227100681302
sV\u091a\u093f\u0924\u094d\u0930\u093e\u0936\u0940
p801
F0.00098911968348170125
sV\u091b\u0932\u093e\u0902\u0917
p802
F0.00098911968348170125
sV\u092b\u094b\u091f\u094b\u0917\u094d\u0930\u093e\u092b\u0940
p803
F0.001514004542013626
sV\u0938\u0941\u0916\u093e\u0928\u0940
p804
F0.00075700227100681302
sV\u0930\u0939\u0940\u0902\u0964
p805
F0.00098911968348170125
sV\u092e\u0930\u094b\u0921\u093c
p806
F0.00075700227100681302
sV\u092c\u093e\u0930-\u092c\u093e\u0930
p807
F0.00098911968348170125
sV\u0905\u0930\u094d\u091a\u0928\u093e
p808
F0.00075700227100681302
sV\u090f\u0915\u092c\u093e\u0930
p809
F1.530658591975776
sV\u092e\u0948\u0928
p810
F0.00098911968348170125
sV\u092a\u094d\u0930\u091a\u093e\u0930\u093f\u0924
p811
F0.00075700227100681302
sV\u091c\u093e\u0928\u093e
p812
F0.00075700227100681302
sV\u0917\u092f\u093e.
p813
F0.00075700227100681302
sV\u0917\u093e\u0928\u094b\u0902
p814
F2.6132542037586548
sV\u092e\u093f\u0932\u093e\u0964
p815
F0.00098911968348170125
sV\u092a\u0941\u0932\u093f\u0938
p816
F0.001514004542013626
sV\u092e\u0948\u0926\u093e\u0928\u094b\u0902
p817
F0.00098911968348170125
sV\u0925\u094b\u0921\u093c\u0940
p818
F0.001514004542013626
sV\u0927\u0940\u092e\u0940
p819
F0.001514004542013626
sV\u092e\u093e\u0902
p820
F3.9198813056379822
sV\u092c\u0928
p821
F1.3066271018793274
sV\u091c\u092e\u093e\u0928\u0924
p822
F0.001514004542013626
sV\u091f\u093f\u092a\u094d\u092a\u0923\u0940
p823
F0.00098911968348170125
sV\u0936\u094c\u0915\u0940\u0928
p824
F1.3066271018793274
sV\u092e\u093e\u0924
p825
F0.00075700227100681302
sV\u0935\u0917\u0948\u0930\u0939
p826
F0.00075700227100681302
sV\u092c\u0938
p827
F2.2959878879636642
sV\u092c\u0940
p828
F1.3066271018793274
sV\u0915\u093e\u092e\u0915\u093e\u091d\u0940
p829
F0.00098911968348170125
sV\u0915\u0930\u094b\u0921\u093c\u094b\u0902
p830
F0.00075700227100681302
sV\u0924\u0948\u092f\u093e\u0930
p831
F0.00075700227100681302
sV\u0925\u094b\u092a\u0947
p832
F0.00098911968348170125
sV\u0939\u0940\u0930\u094b
p833
F8.4186222558667687
sV\u0915\u093e\u0930\u0917\u0930
p834
F1.3066271018793274
sV\u091a\u092e
p835
F0.001514004542013626
sV\u0918\u093e\u0932\u092e\u0947\u0932
p836
F0.00075700227100681302
sV\u0935\u094d\u092f\u093e\u0935\u0938\u093e\u092f\u093f\u0915
p837
F0.00098911968348170125
sV\u092e\u0939\u0947\u0936
p838
F0.00098911968348170125
sV\u0925\u094b\u0921\u093c\u093e
p839
F0.00098911968348170125
sV\u092e\u093f\u0932\u0947\u0902\u0917\u0947
p840
F0.00075700227100681302
sV\u0915\u0930\u0940\u0928\u093e
p841
F1.530658591975776
sV\u091a\u0932
p842
F0.00075700227100681302
sV\u0930\u0947\u0921\u094d\u0921\u0940
p843
F0.00075700227100681302
sV\u092a\u0943\u0937\u094d\u0920\u092d\u0942\u092e\u093f
p844
F0.00075700227100681302
sV\u0917\u094d\u0930\u0947\u0938\u0940
p845
F0.00075700227100681302
sV\u0920\u0940\u0915\u0920\u093e\u0915
p846
F0.00098911968348170125
sV\u091c\u0947\u0928\u0947\u0932\u093f\u092f\u093e
p847
F1.3066271018793274
sV\u0938\u094b\u0928\u092e
p848
F0.00098911968348170125
sV\u092e\u094c\u091c\u0942\u0926\u0917\u0940
p849
F2.6132542037586548
sV\u0938\u094b\u0928\u0932
p850
F0.00098911968348170125
sV\u092a\u093e\u092f\u093e
p851
F0.001514004542013626
sV\u092f\u0902\u0917
p852
F1.530658591975776
sV\u092e\u091c\u092c\u0942\u0930\u0940
p853
F0.00075700227100681302
sV\u092a\u0948\u0915\u0947\u091c\u093f\u0902\u0917
p854
F0.00098911968348170125
sV\u092c\u0947\u0935\u0915\u0942\u092b
p855
F0.00075700227100681302
sV\u0917\u093f\u0928\u0947
p856
F0.00075700227100681302
sV\u092a\u0939\u0941\u0902\u091a\u0928\u0947
p857
F0.00075700227100681302
sV\u092a\u0939\u0932\u093e
p858
F0.00075700227100681302
sV\u092a\u093e\u0924\u0947\u0964
p859
F0.001514004542013626
sV\u092e\u093e\u0927\u0935\u0928
p860
F2.6132542037586548
sV\u0938\u093e\u0925
p861
F1.1759643916913947
sV\u0938\u093e\u0924
p862
F0.00098911968348170125
sV\u0938\u093e\u092b
p863
F1.530658591975776
sV\u0909\u0938\u0938\u0947
p864
F0.00075700227100681302
sV\u0938\u093e\u0932
p865
F0.0022710068130204391
sV\u0907\u0902\u0938\u093e\u092b
p866
F0.00098911968348170125
sV\u0907\u0902\u0938\u093e\u0928
p867
F0.00075700227100681302
sV\u092a\u0930\u093f\u0935\u0947\u0936
p868
F0.00098911968348170125
sV\u0928\u0939\u093e\u0924\u0940
p869
F0.00075700227100681302
sV\u091c\u0940\u0935\u0902\u0924
p870
F0.0019782393669634025
sV\u091c\u0930\u0940\u0928\u093e
p871
F0.00098911968348170125
sV\u0915\u0948\u0932\u092b\u0949\u0930\u094d\u0928\u093f\u092f\u093e
p872
F0.00098911968348170125
sV\u092e\u0915\u0938\u0926
p873
F1.530658591975776
sV\u092b\u0930\u0939\u093e\u0928
p874
F1.9599406528189911
sV\u0922\u0947\u0930\u094b\u0902
p875
F0.00098911968348170125
sV\u0915\u0930\u0948\u0915\u094d\u091f\u0930
p876
F1.3066271018793274
sV\u0906\u0924\u093e
p877
F5.3573050719152162
sV\u0924\u092e\u093e\u0936\u093e
p878
F0.001514004542013626
sV\u0938\u094c\u0902\u092a\u0940
p879
F0.00075700227100681302
sV\u091a\u093e\u0939\u0924\u0947
p880
F1.3066271018793274
sV\u091f\u094d\u0930\u093f\u0915
p881
F0.00075700227100681302
sV\u0932\u0917\u0924\u0940
p882
F1.530658591975776
sV\u092c\u0947\u0939\u0926
p883
F1.3066271018793274
sV\u0938\u094d\u0915\u0942\u0932
p884
F0.00098911968348170125
sV\u0916\u0942\u092c\u093f\u092f\u094b\u0902
p885
F0.00075700227100681302
sV\u0907\u0938\u094d\u0924\u0947\u092e\u093e\u0932
p886
F0.0022710068130204391
sV\u090f\u0915\u094d\u0938\u094d\u091f\u094d\u0930\u093e
p887
F0.00075700227100681302
sV\u0926\u0930\u094d\u0926,
p888
F0.00075700227100681302
sV\u0909\u0915\u0924\u093e\u0928\u0947
p889
F0.00075700227100681302
sV\u0935\u093f\u0936\u093e\u0932
p890
F2.6132542037586548
sV\u091c\u094b\u0939\u093e\u0902\u0938\u092c\u0930\u094d\u0917
p891
F0.00098911968348170125
sV\u0932\u0917\u0924\u093e
p892
F3.82664647993944
sV\u0935\u0939\u0940\u0902,
p893
F0.00098911968348170125
sV\u092e\u0930\u0924\u0940
p894
F0.00075700227100681302
sV\u092c\u0928\u093e\u0924\u0940
p895
F0.00075700227100681302
sV\u092c\u0928\u093e\u0924\u0947
p896
F0.00098911968348170125
sV\u0930\u093e\u0907\u091f\u0930
p897
F0.00075700227100681302
sV\u0936\u0948\u0932\u0940
p898
F0.00098911968348170125
sV\u0906\u0924\u0940
p899
F2.2959878879636642
sV\u0906\u0924\u0947
p900
F3.0613171839515521
sV\u0932\u094b\u0939\u093e
p901
F0.00098911968348170125
sV\u0938\u093f\u0928\u0947\u092e\u0947\u091f\u094b\u0917\u094d\u0930\u092b\u0940
p902
F0.00098911968348170125
sV\u0932\u0917\u093e\u092f\u093e
p903
F0.00098911968348170125
sV\u091a\u093e\u0902\u0926
p904
F0.00075700227100681302
sV\u091c\u0930\u0942\u0930\u0940
p905
F0.0019782393669634025
sV\u092c\u0902\u0926\u093f\u0936\u094b\u0902
p906
F0.00098911968348170125
sV\u0939\u093f\u0938\u094d\u0938\u093e
p907
F3.9198813056379822
sV\u092a\u093e\u0938\u0935\u0930\u094d\u0921
p908
F0.00098911968348170125
sV\u0938\u0941\u092a\u0930\u0939\u093f\u091f
p909
F0.00075700227100681302
sV\u0938\u0941\u0937\u094d\u092e\u093f\u0924\u093e
p910
F0.00098911968348170125
sV\u0930\u094b\u092e\u093e\u0902\u0938
p911
F0.001514004542013626
sV\u0938\u093e\u0907\u0928
p912
F0.00075700227100681302
sV\u091b\u094b\u0921\u093c\u0915\u0930
p913
F1.3066271018793274
sV\u0905\u092e\u093f\u0924\u093e
p914
F0.00075700227100681302
sV\u0939\u092e\u093e\u0930\u0940
p915
F1.3066271018793274
sV\u0936\u094d\u0932\u094b\u0915
p916
F0.00075700227100681302
sV\u0935\u093f\u0928\u092f
p917
F0.00098911968348170125
sV\u092e\u091c\u092c\u0942\u0924
p918
F1.3066271018793274
sV\u091a\u094b\u092a\u0921\u093c\u093e
p919
F0.0022710068130204391
sV\u0930\u094b\u092e\u093e\u0902\u091a
p920
F0.00098911968348170125
sV\u0907\u092b\u0947\u0915\u094d\u091f\u094d\u0938
p921
F0.00075700227100681302
sV\u0916\u093e\u0924\u093e
p922
F0.00098911968348170125
sV\u0939\u092e\u093e\u0930\u093e
p923
F0.00075700227100681302
sV\u092e\u093e\u0907\u0928\u0938
p924
F0.00075700227100681302
sV\u0932\u094b\u0915\u0924\u0902\u0924\u094d\u0928
p925
F0.00075700227100681302
sV\u091c\u0940\u0930\u094b
p926
F0.00075700227100681302
sV\u0939\u093f\u0938\u094d\u0938\u0947
p927
F1.1479939439818321
sV\u091d\u0947\u0932\u0928\u093e
p928
F0.00075700227100681302
sV\u0938\u094d\u0928\u0947\u0939\u093e
p929
F0.00075700227100681302
sV\u092e\u093e\u0938\u094d\u091f\u0930
p930
F0.00075700227100681302
sV\u0915\u092e\u093e\u0908
p931
F0.00098911968348170125
sV\u0927\u094d\u0935\u0928\u093f
p932
F0.00075700227100681302
sV\u091c\u0932\u094d\u0926\u092c\u093e\u095b\u0940
p933
F0.00075700227100681302
sV\u092c\u0928\u093e\u0908\u0964
p934
F0.00098911968348170125
sV\u0915\u0932\u093e\u0915\u093e\u0930\u094b\u0902
p935
F0.0022710068130204391
sV\u0939\u094b\u0928\u0947
p936
F1.7857683573050718
sV\u0907\u092e\u094d\u0924\u093f\u092f\u093e\u091c\u093c
p937
F0.00098911968348170125
sV\u0905\u091c\u0940\u092c\u094b\u0917\u0930\u0940\u092c
p938
F0.00075700227100681302
sV\u0932\u093f\u0916\u0924\u0947
p939
F0.00098911968348170125
sV\u0938\u093f\u0928\u0947\u092e\u093e\u0918\u0930
p940
F0.00075700227100681302
sV\u0924\u0930\u0940\u0915\u0947
p941
F2.6132542037586548
sV\u0935\u093f\u0915\u094d\u0930\u092e
p942
F0.00075700227100681302
sV\u0917\u0932\u093f\u092f\u094b\u0902
p943
F0.00075700227100681302
sV\u090b\u0937\u093f
p944
F0.00098911968348170125
sV\u091f\u093e\u0907\u092e
p945
F0.00098911968348170125
sV\u0928\u093e\u0917\u093f\u092f\u093e
p946
F0.00075700227100681302
sV\u0917\u094b\u092a\u093e\u0932
p947
F1.3066271018793274
sV\u092b\u093f\u0932\u094d\u092e
p948
F1.2039936485663114
sV\u0938\u0941\u0928\u0924\u0947
p949
F0.00075700227100681302
sV\u0918\u093e\u0938
p950
F0.00098911968348170125
sV\u0915\u094b\u0932\u094d\u0939\u093e\u092a\u0941\u0930\u0940
p951
F0.00098911968348170125
sV\u0910\u0915\u094d\u091f\u0930
p952
F0.0022710068130204391
sV\u092e\u0928\u092a\u0938\u0902\u0926
p953
F0.00098911968348170125
sV\u092e\u093f\u0938
p954
F0.001514004542013626
sV\u0909\u0932\u091d
p955
F0.00075700227100681302
sV\u0907\u0902\u0921\u0938\u094d\u091f\u094d\u0930\u0940
p956
F0.0022710068130204391
sV\u091a\u093e\u0939\u093f\u090f\u0964
p957
F0.00075700227100681302
sV\u092e\u093f\u0932
p958
F0.003956478733926805
sV\u0915\u093f\u0938\u0915\u0947
p959
F0.00075700227100681302
sV\u092c\u093e\u0932\u0928
p960
F0.00098911968348170125
sV\u0924\u094b\u0921\u093c
p961
F0.00075700227100681302
sV\u0938\u093e\u092e\u0928\u0947
p962
F3.82664647993944
sV\u0909\u092a\u091c
p963
F0.00075700227100681302
sV\u092a\u0948\u0938\u0947
p964
F0.001514004542013626
sV\u0905\u092f\u0942\u092c
p965
F0.00075700227100681302
sV\u092c\u093e\u0935\u091c\u0942\u0926
p966
F1.2755488266464798
sV\u0938\u0902\u0935\u0947\u0926\u0928\u093e\u0924\u094d\u092e\u0915
p967
F0.00098911968348170125
sV\u092a\u0939\u091a\u093e\u0928
p968
F1.530658591975776
sV\u092f\u0941\u0935\u093e\u0913\u0902
p969
F0.0019782393669634025
sV\u0906\u091c\u093e\u0926
p970
F0.00098911968348170125
sV\u0935\u0947\u0928\u093f\u0938
p971
F0.00098911968348170125
sV\u0930\u093e\u0939
p972
F0.00098911968348170125
sV\u0905\u0932\u0917
p973
F2.6132542037586548
sV\u090f\u0915\u094d\u0936\u0928
p974
F0.002967359050445104
sV\u092e\u094c\u0915\u0947-\u092c\u0947\u092e\u094c\u0915\u0947
p975
F0.00075700227100681302
sV\u0909\u0938\u0940
p976
F0.00075700227100681302
sV\u0909\u0938\u0947
p977
F0.00075700227100681302
sV\u0932\u0940\u0935\u0930
p978
F0.00075700227100681302
sV\u0915\u093f\u092f\u093e
p979
F2.1777118364655457
sV\u0909\u092a\u092f\u094b\u0917\u0940
p980
F0.00098911968348170125
sV\u091c\u0930\u093f\u092f\u093e
p981
F0.00098911968348170125
sV\u0928\u0947
p982
F1.486851529724752
sV\u090f\u0915\u0926\u092e
p983
F0.00098911968348170125
sV\u0928\u093e
p984
F1.1479939439818321
sV\u092c\u093f\u0916\u0930\u0940
p985
F0.0022710068130204391
sV\u0928\u0938\u0940\u0930\u0941\u0926\u094d\u0926\u0940\u0928
p986
F0.0019782393669634025
sV\u0938\u0941\u092c\u094d\u0930\u0924
p987
F0.00098911968348170125
sV\u092e\u094c\u091c\u0942\u0926
p988
F1.3066271018793274
sV\u0915\u0930\u094d\u0923\u092a\u094d\u0930\u093f\u092f
p989
F0.00075700227100681302
sV\u0939\u0948\u0902,
p990
F1.3066271018793274
sV\u0939\u0948\u0902.
p991
F0.001514004542013626
sV\u0928\u0908
p992
F1.3066271018793274
sV\u0936\u093e\u092f\u0926
p993
F2.2959878879636642
sV\u0905\u0932\u0940
p994
F1.3066271018793274
sV\u0928\u090f
p995
F1.3066271018793274
sV-2
p996
F0.00075700227100681302
sV\u092e\u0941\u0926\u094d\u0926\u0938\u094d\u0938\u0930
p997
F0.00075700227100681302
sV\u090f\u0902\u091f\u094d\u0930\u0940
p998
F0.00098911968348170125
sV\u0932\u0917\u093e\u0935
p999
F0.00075700227100681302
sV\u0938\u0941\u092a\u0930
p1000
F0.001514004542013626
sV\u0906\u0907\u091f\u092e
p1001
F0.00098911968348170125
sV\u090f\u0902\u091c\u093f\u0932\u094d\u0938
p1002
F0.00098911968348170125
sV\u092a\u094d\u0930\u0940\u0924\u092e
p1003
F1.9599406528189911
sV\u0938\u0939\u0917\u0932
p1004
F0.00098911968348170125
sV\u0932\u0917\u093e\u0928
p1005
F0.00075700227100681302
sV\u092e\u093e\u0938\u0942\u092e
p1006
F0.00075700227100681302
sV\u092c\u093f\u0932\u094d\u0921\u093f\u0917\u094b\u0902
p1007
F0.00098911968348170125
sV\u0907\u0924\u0928\u0947
p1008
F0.00075700227100681302
sV\u092a\u0939\u0932\u0942
p1009
F0.00098911968348170125
sV\u0907\u0924\u0928\u0940
p1010
F1.3066271018793274
sV\u0939\u0942\u0902
p1011
F0.00075700227100681302
sV\u0938\u0939\u093e\u0930\u093e
p1012
F0.00098911968348170125
sV\u092d\u091f\u0915\u0928\u0947
p1013
F0.00075700227100681302
sV\u0905\u092e\u0943\u0924
p1014
F0.00075700227100681302
sV\u0938\u0939\u093e\u0930\u0947
p1015
F0.00098911968348170125
sV\u0907\u0924\u0928\u093e
p1016
F0.001514004542013626
sV\u0916\u093e\u0938
p1017
F0.0037850113550340651
sV\u092f\u0939\u0940\u0902
p1018
F0.0037850113550340651
sV\u0938\u0941\u0928\u094d\u0926\u0930
p1019
F0.00098911968348170125
sV\u0916\u093e\u0928
p1020
F2.2959878879636637
sV\u092f\u0941\u0935\u0915
p1021
F0.00098911968348170125
sV\u0915\u0902\u0917\u0928\u093e
p1022
F0.001514004542013626
sV\u0935\u094d\u092f\u0915\u094d\u0924\u093f\u092f\u094b\u0902
p1023
F0.00098911968348170125
sV\u0917\u094b\u0935\u093f\u0902\u0926\u093e
p1024
F1.3066271018793274
sV\u0930\u0940\u092f\u0932
p1025
F0.00075700227100681302
sV\u0916\u0921\u093c\u093e
p1026
F1.3066271018793274
sV\u091f\u093f\u092a\u094d\u0938
p1027
F0.00098911968348170125
sV\u091a\u0932\u0924\u093e\u0964
p1028
F0.00075700227100681302
sV\u0938\u094d\u0915\u094d\u0930\u0940\u0928
p1029
F1.1479939439818321
sV\u0938\u0902\u091c\u0928\u093e
p1030
F0.00075700227100681302
sV\u0909\u091a\u093f\u0924
p1031
F1.3066271018793274
sV\u0917\u0935\u093e\u0930\u093e
p1032
F0.00075700227100681302
sV\u0915\u0930\u0924\u0947
p1033
F1.7857683573050718
sV\u0915\u0930\u0924\u0940
p1034
F3.9198813056379822
sV\u0938\u094b\u091a\u093e
p1035
F0.00098911968348170125
sV\u091c\u092c\u0930\u0928
p1036
F0.001514004542013626
sV\u091c\u093e\u0917\u0924\u093e
p1037
F0.00075700227100681302
sV\u0915\u0948\u092e\u0930\u0947
p1038
F1.91332323996972
sV\u091a\u0941\u0915\u0947
p1039
F0.001514004542013626
sV\u091a\u0941\u0915\u0940
p1040
F0.001514004542013626
sV\u0916\u0948\u0930
p1041
F0.00098911968348170125
sV\u0924\u092e\u093e\u092e
p1042
F1.3066271018793274
sV\u0906\u0909\u091f\u0921\u094b\u0930
p1043
F0.00098911968348170125
sV\u0938\u0902\u091c\u092f
p1044
F1.9599406528189911
sV\u091a\u0941\u0915\u093e
p1045
F0.00098911968348170125
sV\u0917\u0941\u0926\u0917\u0941\u0926\u093e
p1046
F0.00098911968348170125
sV\u0938\u092e\u0940\u0930\u093e
p1047
F0.00075700227100681302
sV\u092e\u0940\u0932,
p1048
F0.00075700227100681302
sV\u0905\u092d\u093f\u0928\u092f\u0964
p1049
F0.00098911968348170125
sV\u0921\u093e\u092f\u0930\u0947\u0915\u094d\u091f\u0930\u094d\u0938
p1050
F0.00075700227100681302
sV\u092e\u0928\u0935\u093e\u0928\u0947
p1051
F0.00098911968348170125
sV\u091f\u094d\u0930\u0947\u0928
p1052
F0.00098911968348170125
sV\u0938\u094b\u091a\u0964
p1053
F0.00098911968348170125
sV\u0935\u093e\u0936\u0941
p1054
F0.00075700227100681302
sV\u0917\u0941\u0932
p1055
F0.0019782393669634025
sV\u0938\u0902\u091a\u093e\u0930
p1056
F0.00098911968348170125
sV\u0924\u093e\u0932\u0940'
p1057
F0.00098911968348170125
sV\u092f\u0947
p1058
F0.00098911968348170125
sV\u0915\u0947\u0926\u093e\u0930
p1059
F0.00098911968348170125
sV\u0906\u0917\u0947
p1060
F0.0022710068130204391
sV\u092f\u0942
p1061
F0.00075700227100681302
sV\u0909\u0924\u0930
p1062
F0.001514004542013626
sV\u0905\u0936\u094d\u0935\u0947\u0924
p1063
F0.00098911968348170125
sV\u0938\u093f\u0930\u094d\u092b
p1064
F1.530658591975776
sV\u091a\u0948\u0902\u092a\u093f\u092f\u0928
p1065
F0.00098911968348170125
sV\u092a\u0941\u0930\u093e
p1066
F0.00098911968348170125
sV\u0909\u0928\u0915\u093e
p1067
F6.5331355093966366
sV\u0908\u092e\u093e\u0928\u0926\u093e\u0930\u0940
p1068
F0.00075700227100681302
sV\u0936\u094c\u0915\u0940\u0928\u094b\u0902
p1069
F0.00098911968348170125
sV\u0918\u091f\u0928\u093e\u090f\u0902
p1070
F0.00075700227100681302
sV\u092e\u093f\u0925\u094d\u092f\u093e
p1071
F0.00075700227100681302
sV\u0936\u093e\u0939,
p1072
F0.00098911968348170125
sV\u0906\u092a\u0915\u0947
p1073
F0.00075700227100681302
sV\u0906\u092a\u0915\u094b
p1074
F0.001514004542013626
sV\u0939\u0949\u0932\u093f\u0935\u0941\u0921
p1075
F1.3066271018793274
sV\u091c\u0941\u0921\u093c\u0924\u093e
p1076
F0.00075700227100681302
sV\u0938\u0941\u0925\u0930\u0940
p1077
F0.00098911968348170125
sV\u092f\u093e\u0926
p1078
F1.530658591975776
sV\u0906\u092a\u0915\u093e
p1079
F0.00098911968348170125
sV\u0915\u0926\u0930
p1080
F0.00075700227100681302
sV\u0921\u092c\u0932
p1081
F0.0030280090840272521
sV\u0909\u0928\u0915\u0940
p1082
F2.2959878879636642
sV\u092a\u0941\u0930\u0942
p1083
F0.00098911968348170125
sV\u092a\u0941\u0930\u0940
p1084
F0.00098911968348170125
sV\u0909\u0928\u0915\u0947
p1085
F1.7857683573050718
sV\u092f\u093e
p1086
F0.0022710068130204391
sV\u092f\u0939
p1087
F1.7602573807721424
sV\u0926\u0942\u092c\u0947
p1088
F0.00075700227100681302
sV\u092b\u093c\u093f\u200d\u0932\u094d\u200d\u092e
p1089
F0.00098911968348170125
sV\u0939\u093f\u0938\u093e\u092c
p1090
F0.00098911968348170125
sV\u0905\u0928\u0947\u0915
p1091
F0.00098911968348170125
sV\u0932\u0947\u0924\u0940\u0902
p1092
F0.00075700227100681302
sV\u0930\u093f\u0932\u0940\u0938
p1093
F1.530658591975776
sV\u0926\u093f\u0916\u0947.
p1094
F0.00098911968348170125
sV\u0920\u0917\u093e
p1095
F0.00075700227100681302
sV\u092e\u0938\u093e\u0932\u0947
p1096
F1.3066271018793274
sV\u0938\u0941\u0939\u0948\u0932
p1097
F0.00075700227100681302
sV\u091a\u094c\u0921\u093c\u0940
p1098
F0.00075700227100681302
sV\u0936\u094d\u0930\u0947\u0923\u0940
p1099
F0.00075700227100681302
sV\u0935\u093f\u0935\u093e\u0926
p1100
F0.00075700227100681302
sV\u092f\u094b\u0917\u0926\u093e\u0928
p1101
F0.002967359050445104
sV\u0921\u094d\u0930\u093e\u092e\u093e
p1102
F0.00075700227100681302
sV22
p1103
F0.00075700227100681302
sV\u091c\u0941\u0921\u093c\u0947
p1104
F0.00098911968348170125
sV\u092c\u0941\u091d\u0947-\u092c\u0941\u091d\u0947
p1105
F0.001514004542013626
sV\u091c\u0941\u0921\u093c\u0940
p1106
F0.00075700227100681302
sV\u091c\u0941\u0921\u093c\u093e
p1107
F0.00075700227100681302
sV\u091c\u0940\u0924\u0928\u0947
p1108
F0.00098911968348170125
sV\u091c\u093f\u0938\u092e\u0947\u0902
p1109
F1.530658591975776
sV\u0926\u093f\u0932\u091a\u0938\u094d\u200d\u092a
p1110
F0.00098911968348170125
sV\u092e\u0938\u093e\u0932\u093e
p1111
F1.3066271018793274
sV\u0924\u094d\u0930\u093e\u0938\u0926
p1112
F0.00075700227100681302
sV\u0930\u0916\u0928\u0947
p1113
F1.1479939439818321
sV\u0905\u0928\u093f\u0932
p1114
F0.00098911968348170125
sV\u0905\u0928\u093e\u0921\u093c\u0940
p1115
F0.00075700227100681302
sV\u0915\u0947\u092c\u093f\u0928
p1116
F0.00098911968348170125
sV\u0938\u0941\u0939\u093e\u0928\u093e
p1117
F0.00098911968348170125
sV\u0916\u093e\u0924\u0947
p1118
F0.00075700227100681302
sV\u0909\u0924\u093e\u0930
p1119
F0.00075700227100681302
sV\u092d\u0917\u0935\u093e\u0928
p1120
F0.00075700227100681302
sV\u0917\u0908\u0964
p1121
F0.00075700227100681302
sV\u0938\u0936\u0915\u094d\u0924
p1122
F0.0019782393669634025
sV\u092a\u093e\u092a\u093e
p1123
F0.00075700227100681302
sV\u0938\u092e\u0941\u0926\u094d\u0930\u0940
p1124
F0.00098911968348170125
sV\u0917\u0908\u0902\u0964
p1125
F0.001514004542013626
sV\u0928\u093f\u0936\u093e
p1126
F0.00075700227100681302
sV\u0930\u093e\u091c
p1127
F1.3066271018793274
sV\u092c\u0940\u091a\u0947\u091c
p1128
F0.00075700227100681302
sV\u0909\u0921\u093c\u093e\u092f\u093e
p1129
F0.00075700227100681302
sV\u0915\u0930\u093e\u0930\u093e
p1130
F0.0019782393669634025
sV\u0905\u0918\u094d\u092f\u092f\u0928
p1131
F0.00075700227100681302
sV\u091f\u093e\u0907\u092a
p1132
F0.00075700227100681302
sV\u092a\u0926\u094d\u092e
p1133
F0.00098911968348170125
sV\u0916\u093e\u0938\u0915\u0930
p1134
F0.00075700227100681302
sV\u0930\u093e\u092e
p1135
F1.530658591975776
sV\u092f\u0941\u0935\u093f\u0915\u093e
p1136
F0.00098911968348170125
sV\u0930\u093e\u0924
p1137
F0.00098911968348170125
sV\u0938\u0939\u0940
p1138
F2.6132542037586548
sV\u0905\u0902\u0924\u093f\u092e
p1139
F0.00098911968348170125
sV\u092e\u093f\u0928\u091f
p1140
F0.00075700227100681302
sV\u0921\u0949\u0915\u094d\u091f\u0930
p1141
F0.001514004542013626
sV\u091c\u093e\u0935\u0947\u0926
p1142
F1.3066271018793274
sV\u0936\u0942\u091f\u093f\u0902\u0917
p1143
F0.00075700227100681302
sV\u0938\u0939\u092e
p1144
F0.00098911968348170125
sV\u0938\u0939\u091c
p1145
F0.00098911968348170125
sV\u0932\u0947\u0915\u0930,
p1146
F0.00098911968348170125
sV\u0939\u0941\u090f
p1147
F9.1463897131552923
sV\u0939\u0941\u0908
p1148
F1.5306585919757758
sV\u0905\u0930\u094d\u0925\u094b\u0902
p1149
F0.00098911968348170125
sV\u0926\u0941\u0928\u093f\u092f\u093e
p1150
F0.0019782393669634025
sV\u0922\u0940\u0932\u093e
p1151
F0.00075700227100681302
sV\u0939\u0941\u0906
p1152
F0.00075700227100681302
sV\u0938\u092c\u094d\u091c\u0947\u0915\u094d\u091f
p1153
F3.82664647993944
sV\u091a\u0930\u094d\u091a\u093e
p1154
F0.00098911968348170125
sV\u092a\u0922\u0947-\u0932\u093f\u0916\u0947,
p1155
F0.00075700227100681302
sV\u0905\u091c\u092f
p1156
F1.3066271018793274
sV\u090a\u092a\u0930
p1157
F0.00075700227100681302
sV\u0916\u0941\u0936\u0939\u093e\u0932
p1158
F0.00075700227100681302
sV\u092c\u0928\u0928\u093e
p1159
F0.00075700227100681302
sV\u091a\u0930\u093f\u0924\u094d\u0930\u094b\u0902
p1160
F0.00098911968348170125
sV\u091b\u0942\u0928\u0947
p1161
F0.00098911968348170125
sV\u0938\u0902\u0924\u0941\u0932\u0928
p1162
F0.00098911968348170125
sV\u0921\u0947\u0935\u093f\u0921
p1163
F0.00075700227100681302
sV\u0936\u0942\u091f
p1164
F1.3066271018793274
sV\u092b\u093f\u0930
p1165
F1.0204390613171839
sV\u0907\u091c
p1166
F0.00075700227100681302
sV\u092c\u0947\u0939\u093f\u091a\u0915
p1167
F0.00098911968348170125
sV\u0936\u094b\u0932\u0947
p1168
F0.001514004542013626
sV\u0924\u0941\u0932\u0928\u093e
p1169
F0.001514004542013626
sV\u0938\u094d\u091f\u094b\u0930\u0940
p1170
F1.3066271018793274
sV\u092b\u093f\u091f
p1171
F2.0906033630069238
sV\u092c\u094b\u0930\u093f\u092f\u0924
p1172
F0.00075700227100681302
sV\u0927\u094d\u092f\u093e\u0928
p1173
F0.0022710068130204391
sV\u092a\u092c\u094d\u0932\u093f\u0938\u093f\u091f\u0940
p1174
F0.00075700227100681302
sV\u0907\u0938
p1175
F1.2857532172596517
sV\u0938\u0940\u0928\u093f\u092f\u0930
p1176
F0.001514004542013626
sV\u0915\u0949\u0932\u093f\u091c
p1177
F0.00075700227100681302
sV\u0928\u093e\u092e\u094b\u0902
p1178
F0.00075700227100681302
sV\u0907\u0928
p1179
F3.0613171839515521
sV\u091f\u094d\u0930\u0948\u0915
p1180
F0.001514004542013626
sV\u0921\u0930\u093e\u0935\u0928\u0940
p1181
F0.00075700227100681302
sV\u092f\u0939\u0940
p1182
F2.6786525359576081
sV\u0917\u0940\u0924
p1183
F1.530658591975776
sV\u0915\u0930\u0940\u092c
p1184
F0.00075700227100681302
sV\u0924\u0932\u093e\u0936\u0928\u0947
p1185
F0.00075700227100681302
sV\u0915\u094c\u0928-\u0938\u0940
p1186
F0.00075700227100681302
sV\u092c\u094d\u0932\u0942\u0964
p1187
F0.00075700227100681302
sV\u0924\u0932\u092a\u0921\u093c\u0947
p1188
F0.0019782393669634025
sV\u0930\u093f\u091a\u0930\u094d\u0921
p1189
F0.00075700227100681302
sV70
p1190
F0.00075700227100681302
sV\u0909\u092d\u0930\u0915\u0930
p1191
F0.00098911968348170125
sV\u092e\u0947\u0932\u0921\u0940
p1192
F0.00098911968348170125
sV\u0939\u093f\u091f
p1193
F0.00075700227100681302
sV\u092a\u0938\u0930
p1194
F0.00075700227100681302
sV\u0938\u0947\u0915\u094d\u0938\u0940
p1195
F1.3066271018793274
sV\u0930\u094b\u0915\u0924\u0940
p1196
F0.00075700227100681302
sV\u092d\u0940,
p1197
F0.00098911968348170125
sV\u0938\u094c\u0930\u092d
p1198
F2.6132542037586548
sV\u0938\u094d\u091f\u0942\u0921\u093f\u092f\u094b
p1199
F0.00098911968348170125
sV\u092e\u0947\u0932\u094b\u0921\u0940
p1200
F0.00075700227100681302
sV\u092b\u0941\u0932\u0915\u0940
p1201
F0.00098911968348170125
sV\u0939\u093e\u0932
p1202
F0.0037850113550340651
sV\u092e\u0947\u0932
p1203
F0.00098911968348170125
sV\u0939\u093e\u092b
p1204
F0.001514004542013626
sV\u0939\u093e\u0925
p1205
F0.00075700227100681302
sV\u0939\u093e\u0932-\u090f-\u0926\u093f\u0932
p1206
F0.00075700227100681302
sV\u091b\u093e\u092f\u093e
p1207
F0.00098911968348170125
sV\u091a\u093e\u0930\u094d\u091f
p1208
F0.0019782393669634025
sV\u090f\u0915\u094d\u200d\u0938\u094d\u200d\u091f\u094d\u0930\u0940\u092e\u0932\u0940
p1209
F0.00075700227100681302
sV\u0916\u093e\u0938\u0940
p1210
F0.0019782393669634025
sV\u0938\u091f\u094d\u091f\u0947\u092c\u093e\u091c
p1211
F0.00098911968348170125
sV\u092e\u0947\u0902
p1212
F1.0142350231371002
sV\u0917\u094d\u0930\u0947\u091f
p1213
F0.00075700227100681302
sV\u0916\u0928\u094d\u0928\u093e)
p1214
F0.00075700227100681302
sV\u091b\u091f\u093e\u0915
p1215
F0.00075700227100681302
sV\u0915\u093e\u0930\u094b\u0902
p1216
F0.00075700227100681302
sV\u0915\u0930\u094d\u091c
p1217
F0.00098911968348170125
sV\u0917\u092f\u0947
p1218
F0.00075700227100681302
sV\u0939\u093e\u0902
p1219
F1.530658591975776
sV\u0917\u092f\u093e
p1220
F1.3393262679788041
sV\u092a\u094d\u0930\u094b\u092b\u093e\u0907\u0932
p1221
F0.00098911968348170125
sV\u091c\u093f\u0928\u094d\u0939\u0947\u0902
p1222
F1.3066271018793274
sV\u0915\u0948\u0902\u091a\u0940
p1223
F0.00075700227100681302
sV\u0926\u0947\u0916
p1224
F0.001514004542013626
sV\u0938\u094b\u0938\u093e\u092f\u091f\u0940
p1225
F0.00075700227100681302
sV\u0924\u094c\u0930
p1226
F1.530658591975776
sV\u0926\u0947\u0936\u0926\u094d\u0930\u094b\u0939\u0940
p1227
F0.00075700227100681302
sV\u092a\u0947\u0936
p1228
F1.9599406528189911
sV\u0925\u0947\u0964
p1229
F0.001514004542013626
sV\u0928\u094d\u092f\u093e\u092f
p1230
F0.00098911968348170125
sV\u0906\u0915\u0930
p1231
F0.00075700227100681302
sV\u0926\u0947\u0936
p1232
F1.3066271018793274
sV\u0926\u0947\u0930
p1233
F0.001514004542013626
sV\u0935\u0930\u094d\u092e\u093e
p1234
F1.530658591975776
sV\u0938\u093f\u0926\u094d\u0927\u093e\u0930\u094d\u0925
p1235
F0.0019782393669634025
sV\u092a\u0947\u091c
p1236
F0.00098911968348170125
sV\u0938\u0902\u0917\u0940\u0924\u0915\u093e\u0930
p1237
F0.00098911968348170125
sV\u0918\u0930
p1238
F0.00075700227100681302
sV\u0926\u093e\u0926\u093e
p1239
F0.00075700227100681302
sV\u0905\u0928\u0941\u0938\u093e\u0930
p1240
F0.00098911968348170125
sV\u0938\u0915\u0924\u093e
p1241
F5.3573050719152162
sV\u0906\u0915\u0930\u094d\u0937\u093f\u0924
p1242
F0.00075700227100681302
sV\u0939\u094b\u0924\u0940
p1243
F0.00075700227100681302
sV\u092a\u094d\u0930\u0915\u093e\u0936
p1244
F0.00075700227100681302
sV\u0939\u094b\u0924\u0947
p1245
F1.530658591975776
sV\u0915\u0932\u093e\u0915\u093e\u0930
p1246
F3.0613171839515521
sV\u0930\u092b\u094d\u0924\u093e\u0930
p1247
F1.91332323996972
sV\u091c\u0917\u0939
p1248
F1.530658591975776
sV\u092e\u0940\u0928\u093f\u0902\u0917
p1249
F0.0030280090840272521
sV\u0935\u091c\u0939
p1250
F0.0037850113550340651
sV\u092e\u0947\u0928\u0928
p1251
F0.00098911968348170125
sV\u0932\u0947\u0915\u0930
p1252
F3.0613171839515521
sV\u0915\u091f\u094d\u0920\u093e,
p1253
F0.00075700227100681302
sV\u092e\u0939\u093e\u0930\u093e\u0937\u094d\u091f\u094d\u0930
p1254
F0.00075700227100681302
sV\u090f\u0915-\u0926\u0942\u0938\u0930\u0947
p1255
F0.00098911968348170125
sV\u092a\u093e\u0924\u093e\u0964
p1256
F3.82664647993944
sV\u092c\u0928\u0924\u0940
p1257
F0.00098911968348170125
sV\u091c\u094b\u0921\u093c\u0940
p1258
F1.9599406528189911
sV\u0921\u0949\u0930\u094d\u0915
p1259
F0.00075700227100681302
sV\u0916\u0928\u094d\u0928\u093e
p1260
F0.0022710068130204391
sV\u0938\u0915\u0947\u0902\u0964
p1261
F0.001514004542013626
sV\u0938\u0941\u0939\u0947\u0932
p1262
F0.00098911968348170125
sV\u0939\u094b\u0924\u093e
p1263
F5.3573050719152162
sV\u0909\u092e\u094d\u092e\u0940\u0926
p1264
F0.00075700227100681302
sV\u0938\u0915\u0924\u0947
p1265
F0.0022710068130204391
sV\u0938\u0915\u0924\u0940
p1266
F0.00075700227100681302
sV\u0932\u0917\u0940
p1267
F3.0613171839515521
sV\u092e\u0940\u0921\u093f\u092f\u093e
p1268
F1.3066271018793274
sV\u0939\u094b\u0935\u0947\u0917\u093e
p1269
F0.0019782393669634025
sV\u0932\u0917\u0947
p1270
F1.530658591975776
sV\u0916\u093e\u0928\u0947
p1271
F0.00098911968348170125
sV\u0907\u0938\u0915\u093e
p1272
F0.001514004542013626
sV\u0928
F3.82664647993944
sV\u0936\u092e\u093f\u0924
p1273
F0.001514004542013626
sV\u0938\u093f\u0928\u0947\u092e\u093e\u0918\u0930\u094b\u0902
p1274
F0.001514004542013626
sV\u092c\u093f\u0915\u093e\u090a
p1275
F0.00075700227100681302
sV\u0932\u0947\u0924\u0947
p1276
F0.00075700227100681302
sV\u0905\u0928\u0941
p1277
F0.00075700227100681302
sV\u0935\u0948\u0936\u093e\u0932\u0940
p1278
F0.001514004542013626
sV\u2018\u0938\u094d\u200d\u0932\u092e\u0921\u0949\u0917
p1279
F0.00098911968348170125
sV\u0938\u092c\u0938\u0947
p1280
F1.7421694691724365
sV\u090a\u0930\u094d\u091c\u093e
p1281
F0.00098911968348170125
sV\u092c\u0947\u0905\u0938\u0930
p1282
F0.00075700227100681302
sV\u0905\u092d\u0940
p1283
F0.00075700227100681302
sV\u0932\u094b\u0917\u094b\u0902
p1284
F0.00098911968348170125
sV\u0915\u0930\u094d\u0923\u0927\u093e\u0930
p1285
F0.00075700227100681302
sV\u0909\u0924\u0930\u0928\u0947
p1286
F0.00098911968348170125
sV\u0907\u0938\u0915\u0940
p1287
F0.00098911968348170125
sV\u0932\u093e\u091c\u0935\u093e\u092c
p1288
F0.003956478733926805
sV\u0938\u092b\u0932
p1289
F2.6132542037586548
sV\u0932\u0917\u093e
p1290
F0.00075700227100681302
sV\u0915\u093f\u0938\u0928\u0947
p1291
F0.00075700227100681302
sV\u091b\u093e\u092f\u093e\u0902\u0915\u0928
p1292
F0.00098911968348170125
sV\u0915\u0938\u0924\u0947
p1293
F1.3066271018793274
sV\u0936\u093e\u0926\u0940
p1294
F1.3066271018793274
sV\u092e\u0928\u0935\u093e\u092f\u093e\u0964
p1295
F0.00098911968348170125
sV\u0932\u0940\u0921
p1296
F0.001514004542013626
sV\u0915\u0925\u094d\u092f
p1297
F0.00098911968348170125
sV\u0915\u0920\u093f\u0928\u093e\u0908,
p1298
F0.00075700227100681302
sV\u0922\u0902\u0917
p1299
F1.9599406528189911
sV\u092a\u0924\u094d\u0930\u093f\u0915\u093e
p1300
F0.00098911968348170125
sV\u092c\u0947\u0935\u091c\u0939
p1301
F0.0060560181680545042
sV\u091a\u0942\u0902\u0915\u093f
p1302
F0.00075700227100681302
sV\u092a\u094d\u0930\u093f\u092f\u093e
p1303
F0.00098911968348170125
sV\u0930\u0949\u0915
p1304
F1.530658591975776
sV\u0938\u094d\u0935\u093e\u0928\u0902\u0926
p1305
F0.00098911968348170125
sV\u092c\u094b\u092e\u0928
p1306
F2.6132542037586548
sV\u0908\u092e\u093e\u0928\u0926\u093e\u0930
p1307
F0.00098911968348170125
sV\u092c\u0947\u091a\u0928\u0947
p1308
F0.00075700227100681302
sV\u0932\u0917\u0924\u0947\u0964
p1309
F0.00098911968348170125
sV\u091c\u093e\u0902\u092c\u093e\u091c
p1310
F0.00098911968348170125
sV\u0907\u092e\u0947\u091c
p1311
F0.0019782393669634025
sV\u091a\u0922\u093c
p1312
F0.00075700227100681302
sV\u092c\u0940\u092e\u093e\u0930
p1313
F0.00075700227100681302
sV\u091c\u0930\u0942\u0930
p1314
F1.3066271018793274
sV\u0936\u0941\u0915\u094d\u0932\u093e
p1315
F0.00075700227100681302
sV\u0928\u093f\u0930\u094d\u0926\u0947\u0936\u0928
p1316
F1.530658591975776
sV\u090f\u092c\u0940\u0938\u0940
p1317
F1.530658591975776
sV\u092a\u0935\u093f\u0924\u094d\u0930\u0924\u093e
p1318
F0.00098911968348170125
sV\u0907\u0938\u0932\u093f\u090f
p1319
F0.00075700227100681302
sV\u092d\u093e\u0935\u0928\u093e\u0924\u094d\u092e\u0915
p1320
F0.00098911968348170125
sV\u0928\u093f\u0930\u094d\u0926\u0947\u0936\u0915
p1321
F2.2959878879636642
sV\u0939\u094b\u0924\u093e\u0964
p1322
F0.001514004542013626
sV\u092a\u094d\u0930\u0926\u0930\u094d\u0936\u093f\u0924
p1323
F0.00075700227100681302
sV\u0927\u093e\u0930\u0923\u093e
p1324
F0.00075700227100681302
sV\u0932\u0940\u0928\u093e
p1325
F0.00075700227100681302
sV\u0921\u0941\u092a\u094d\u0932\u093f\u0915\u0947\u091f
p1326
F0.002967359050445104
sV\u0906\u0927\u093e\u0930
p1327
F0.00075700227100681302
sV\u0926\u0936\u0915
p1328
F2.2959878879636642
sV\u0915\u0948\u0902\u092a
p1329
F0.00075700227100681302
sV\u0905\u0932\u0917-\u0905\u0932\u0917
p1330
F0.00075700227100681302
sV\u091f\u093e\u0907\u091f\u093f\u0932
p1331
F0.002967359050445104
sV\u092e\u091c\u0926\u0942\u0930
p1332
F0.00075700227100681302
sV\u0905\u0921\u094d\u0921\u094b\u0902
p1333
F0.00075700227100681302
sV\u0915\u093f\u0938\u094d\u092e
p1334
F1.3066271018793274
sV\u0917\u093e\u0924\u093e
p1335
F0.00075700227100681302
sV\u0927\u0942\u092e
p1336
F0.00075700227100681302
sV\u092e\u0948\u0928\u0947
p1337
F0.00075700227100681302
sV\u092a\u094d\u0930\u093f\u092f\u0902\u0915\u093e
p1338
F0.00075700227100681302
sV\u0930\u093e\u091c\u0928\u0940\u0924\u093f
p1339
F0.00075700227100681302
sV\u0932\u0917\u093e\u0924\u093e\u0930
p1340
F0.00075700227100681302
sV\u0932\u0947\u0928\u093e-\u0926\u0947\u0928\u093e
p1341
F0.00075700227100681302
sV(
F0.00075700227100681302
sV\u0915\u0921\u093c\u0940
p1342
F0.00075700227100681302
sV\u0915\u093e\u092b\u0940
p1343
F2.6132542037586548
sV\u092c\u0947\u0938\u093f\u0930\u092a\u0948\u0930
p1344
F0.00075700227100681302
sV\u0938\u092e\u091d\u0928\u0947
p1345
F0.00075700227100681302
sV\u092c\u094b\u0932\u0924\u093e
p1346
F0.00075700227100681302
sV\u0938\u092e\u091d\u093e
p1347
F0.00075700227100681302
sV\u0926\u0930\u0905\u0938\u0932
p1348
F0.00098911968348170125
sV\u0938\u092e\u091d\u0926\u093e\u0930,
p1349
F0.00075700227100681302
sV\u0905\u0932\u093e\u0935\u093e
p1350
F1.91332323996972
sV\u0924\u0932\u093e\u0936\u093f\u090f\u0964
p1351
F0.00075700227100681302
sV\u092a\u0940\u0930\u093f\u092f\u0921
p1352
F0.00075700227100681302
sV\u0928\u095b\u0930\u093f\u092f\u0947
p1353
F0.00075700227100681302
sV\u0936\u0939\u0930
p1354
F0.0019782393669634025
sV\u0905\u0902\u0921\u0930
p1355
F0.00098911968348170125
sV\u092c\u0930\u0938
p1356
F0.00075700227100681302
sV\u0905\u0930\u0935\u093f\u0902\u0926!
p1357
F0.00098911968348170125
sV\u0915\u0925\u093e
p1358
F0.00075700227100681302
sV\u0939\u0940\u0902
p1359
F0.00075700227100681302
sV\u0921\u0930\u093e\u0935\u0928\u093e
p1360
F0.00075700227100681302
sV\u0924\u0930\u0939-\u0924\u0930\u0939
p1361
F0.00075700227100681302
sV\u0938\u0930\u094d\u091f\u093f\u092b\u093f\u0915\u0947\u091f
p1362
F0.00075700227100681302
sV\u092c\u0922\u093e
p1363
F0.00098911968348170125
sV\u0928\u0947\u092e
p1364
F0.00075700227100681302
sV\u091f\u094d\u0930\u0947\u0928\u093f\u0902\u0917
p1365
F0.00075700227100681302
sV\u0928\u093f\u0930\u093e\u0936\u093e\u091c\u0928\u0915
p1366
F0.00075700227100681302
sV\u091f\u0949\u092a
p1367
F0.003956478733926805
sV\u0916\u093e\u0938\u093f\u092f\u0924
p1368
F0.00098911968348170125
sV\u092a\u093f\u0902\u0921\u093e\u0930\u0940,
p1369
F0.00075700227100681302
sV\u0939\u093f\u092e\u0947\u0936
p1370
F0.0019782393669634025
sV\u0909\u0928\u092e\u0947\u0902
p1371
F0.00098911968348170125
sV\u0926\u093f\u0916\u093e
p1372
F1.3066271018793274
sV\u0905\u0902\u0915\u0941\u0930
p1373
F0.002967359050445104
sV\u0906\u0935\u093e\u091c
p1374
F0.00075700227100681302
sV\u092a\u094d\u0930\u0947\u0930\u093f\u0924
p1375
F0.00075700227100681302
sV\u092c\u091c\u093e\u090f\u0902
p1376
F0.001514004542013626
sV\u0938\u093e\u0909\u0902\u0921
p1377
F0.00075700227100681302
sV\u091b\u0941\u092a\u093e\u0928\u093e
p1378
F0.00075700227100681302
sV\u090f\u0935\u0930\u0947\u091c
p1379
F0.00075700227100681302
sV\u092c\u093f\u091c\u0928\u0947\u0938
p1380
F0.00075700227100681302
sV\u0915\u0941\u091b
p1381
F4.1546447496485346
sV\u092a\u093f\u0902\u0921\u093e\u0930\u0940
p1382
F0.00098911968348170125
sV\u0936\u0939\u0930\u094b\u0902
p1383
F0.001514004542013626
sV\u0915\u093f\u0928\u093e\u0930\u094b\u0902
p1384
F0.00098911968348170125
sV\u092c\u0940\u0918\u093e
p1385
F0.00075700227100681302
sV\u0915\u092e\u093e\u0928
p1386
F0.00075700227100681302
sV\u092a\u093e\u090f\u0964
p1387
F0.001514004542013626
sV\u092c\u0928\u093e\u0928\u0947
p1388
F1.3066271018793274
sV\u0915\u092e\u093e\u0932
p1389
F1.530658591975776
sV\u0932\u0941\u0915
p1390
F3.9198813056379822
sV\u092c\u091c\u091f
p1391
F1.1479939439818321
sV\u092a\u0915\u0921\u093c
p1392
F1.0204390613171839
sV\u0911\u092b\u093f\u0938
p1393
F0.001514004542013626
sV\u092e\u093f\u0928\u091f\u094b\u0902
p1394
F0.00075700227100681302
sV\u0905\u0902\u091c\u0928\u093e
p1395
F0.00075700227100681302
sV\u0921\u0947\u0935\u0932\u0947\u092a
p1396
F0.00075700227100681302
sV\u0928\u0947\u0939\u093e
p1397
F1.3066271018793274
sV\u0928\u093e\u092f\u0921\u0942
p1398
F0.0019782393669634025
sV\u0935\u0940\u091c\u0947
p1399
F1.3066271018793274
sV\u0907\u0921\u093f\u092f\u091f\u094d\u0938
p1400
F0.00098911968348170125
sV\u092c\u0941\u091d\u093e
p1401
F0.001514004542013626
sV\u092a\u094d\u0930\u0924\u093f\u092d\u093e
p1402
F0.00075700227100681302
sV\u0935\u094d\u092f\u0902\u0917\u094d\u092f
p1403
F0.00098911968348170125
sV\u0930\u0916\u0940\u0964
p1404
F0.00075700227100681302
sV\u0928\u091c\u0930\u094b\u0902
p1405
F0.00075700227100681302
sV\u0905\u091a\u094d\u091b\u093e
p1406
F2.2959878879636642
sV\u0939\u094b\u0917\u093e
p1407
F0.00075700227100681302
sV\u092b\u091f-\u092b\u091f\u093e\u0915,
p1408
F0.00075700227100681302
sV\u0930\u0939\u0924\u093e
p1409
F0.0030280090840272521
sV\u0907\u0928\u0938\u0947
p1410
F0.001514004542013626
sV\u092d\u093e\u0930\u0924\u0940\u092f\u094b\u0902
p1411
F0.00075700227100681302
sV\u091a\u0932\u0924\u0947
p1412
F1.3066271018793274
sV\u091a\u0932\u0924\u0940
p1413
F0.00098911968348170125
sV\u092f\u093e\u0926\u0917\u093e\u0930
p1414
F0.0019782393669634025
sV\u0924\u093f\u0915\u0921\u093c\u0940
p1415
F0.00098911968348170125
sV\u0918\u0902\u091f\u0947
p1416
F0.001514004542013626
sV\u0905\u0927\u093f\u0915
p1417
F0.00075700227100681302
sV\u0932\u0917\u0924\u0947
p1418
F0.0030280090840272521
sV\u092c\u091c\u093e\u092f
p1419
F0.00075700227100681302
sV\u0938\u0941\u0927\u093e\u0930
p1420
F0.00075700227100681302
sV\u0938\u0949\u0928\u094d\u0917
p1421
F0.003956478733926805
sV\u0930\u0939\u0924\u0940
p1422
F0.00098911968348170125
sV\u0930\u0939\u0924\u0947
p1423
F0.00098911968348170125
sV\u0939\u094b\u0917\u0940
p1424
F0.0019782393669634025
sV\u0905\u091a\u094d\u091b\u0940
p1425
F3.9198813056379822
sV\u092c\u0947\u0939\u0924\u0930\u0940\u0928
p1426
F9.1463897131552923
sV\u0905\u091a\u094d\u091b\u0947
p1427
F2.2959878879636642
sV\u0909\u0926\u093e\u0939\u0930\u0923
p1428
F0.00075700227100681302
sV\u0938\u093f\u0902\u0939
p1429
F3.9198813056379822
sV\u091c\u0932\u0935\u093e
p1430
F1.3066271018793274
sV\u0938\u0940\u0930\u093f\u092f\u0938
p1431
F0.00075700227100681302
sV\u092c\u0941\u091d\u0947
p1432
F0.001514004542013626
sV\u0909\u0924\u0930\u0947\u0964
p1433
F0.00098911968348170125
sV\u0935\u093e\u0930\u0938\u0940
p1434
F0.0019782393669634025
sV\u0926\u094c\u0930
p1435
F1.3066271018793274
sV\u091a\u0941\u0902\u092c\u0928
p1436
F0.00075700227100681302
sV\u0936\u093e\u0939
p1437
F0.0019782393669634025
sV\u092d\u093e\u0917\u0926\u094c\u0921\u093c
p1438
F0.00075700227100681302
sV\u0907\u092e\u0930\u093e\u0928
p1439
F1.0204390613171839
sV\u0909\u0924\u0930\u0947
p1440
F0.00098911968348170125
sV\u092c\u0949\u0932\u0940\u0935\u0941\u0921
p1441
F0.00098911968348170125
sV\u0915\u093f\u0930\u0926\u093e\u0930\u094b\u0902
p1442
F0.00098911968348170125
sV\u0926\u093f\u0916\u093e\u092f\u093e
p1443
F1.3066271018793274
sV\u0938\u093f\u0935\u093e\u092f
p1444
F0.00075700227100681302
sV\u092e\u094b\u0939\u0928\u0940\u0936
p1445
F0.00075700227100681302
sV\u0909\u0927\u0930
p1446
F0.00075700227100681302
sV\u0921\u0940\u0928\u094b
p1447
F0.00075700227100681302
sV\u0913\u0935\u0930
p1448
F0.00075700227100681302
sV\u0932\u094b\u091f\u0938
p1449
F0.00075700227100681302
sV\u092e\u0942\u0932
p1450
F0.00098911968348170125
sV\u0906\u0916\u093f\u0930
p1451
F1.1479939439818321
sV\u091f\u0940\u0928\u0942
p1452
F0.001514004542013626
sV\u092e\u0902\u0926\u093f\u0930\u093e
p1453
F0.00098911968348170125
sV\u0930\u0939\u093e
p1454
F0.0022710068130204391
sV\u091c\u093f\u0902\u0926\u0917\u0940
p1455
F0.0019782393669634025
sV\u090f\u0915\u094d\u0938\u092a\u094b\u091c
p1456
F0.00075700227100681302
sV\u0936\u0915\u094d\u0924\u093f
p1457
F0.00075700227100681302
sV\u0918\u0942\u092e\u0924\u0940
p1458
F0.00075700227100681302
sV\u095e\u093f\u0930
p1459
F0.00075700227100681302
sV\u092a\u0942\u0930\u0915
p1460
F0.00098911968348170125
sV\u092a\u0942\u0930\u0928
p1461
F0.00075700227100681302
sV\u0939\u0948\u0902\u0964
p1462
F1.486851529724752
sV\u0906\u0928\u0902\u0926
p1463
F0.00075700227100681302
sV\u092c\u0924\u094c\u0930
p1464
F1.3066271018793274
sV\u092a\u0942\u0930\u093e
p1465
F0.00098911968348170125
sV\u0939\u0930\u0915\u0924\u0947\u0902
p1466
F0.00075700227100681302
sV\u0932\u0917\u093e\u0928\u0947
p1467
F1.3066271018793274
sV\u0939\u0938\u094d\u0924\u093f\u092f\u093e\u0902
p1468
F0.00075700227100681302
sV\u0930\u093f\u0902\u0917
p1469
F0.00075700227100681302
sV\u092e\u0947\u0930\u093e
p1470
F0.002967359050445104
sV\u092e\u0947\u0930\u0940
p1471
F0.00075700227100681302
sV\u0932\u0947\u091f\u0947\u0938\u094d\u091f
p1472
F0.00075700227100681302
sV\u092a\u093e\u0930\u094d\u091f\u093f\u092f\u094b\u0902
p1473
F1.3066271018793274
sV\u092a\u0942\u0930\u0940
p1474
F1.7966122650840752
sV\u092c\u0947\u091c\u094b\u0921\u093c
p1475
F0.00098911968348170125
sV\u0915\u0925\u093e\u0913\u0902
p1476
F0.00098911968348170125
sV\u092a\u0942\u0930\u0947
p1477
F0.00075700227100681302
sV\u092a\u093e\u0924\u094d\u0930\u094b\u0902
p1478
F1.530658591975776
sV\u092a\u093e\u0924\u094d\u0930
p1479
F0.00098911968348170125
sV\u091c\u0948\u0915\u0932\u0940\u0928
p1480
F0.00075700227100681302
sV\u0930\u093e\u091c\u0935\u0940\u0930
p1481
F0.001514004542013626
sV\u092b\u0948\u0902\u091f\u0947\u0938\u0940
p1482
F0.00098911968348170125
sV\u091f\u093f\u0915\u0940
p1483
F2.6132542037586548
sV\u091f\u0940\u0935\u0940
p1484
F0.00075700227100681302
sV\u0938\u0930\u0915\u093e\u0930\u0940
p1485
F0.00075700227100681302
sV\u092e\u0928\u092e\u094b\u0939\u0928
p1486
F0.00075700227100681302
sV\u0938\u091f\u0940\u0915
p1487
F0.0019782393669634025
sV\u0930\u0939\u0940
p1488
F0.003956478733926805
sV\u0930\u0939\u0947
p1489
F1.1199660873251378
sV\u0915\u0939\u093e\u0928\u0940
p1490
F1.6741578349735049
sV\u092e\u0947\u0939\u0928\u0924\u093e\u0928\u093e
p1491
F0.00098911968348170125
sV\u092c\u0948\u0920\u0947
p1492
F0.001514004542013626
sV\u0936\u094d\u0930\u0949\u092b
p1493
F0.00098911968348170125
sV\u0917\u094d\u092f\u093e\u0930\u0939\u0935\u0940\u0902
p1494
F0.00075700227100681302
sV\u0915\u094b\u0938,
p1495
F0.00075700227100681302
sV\u0910\u0915\u094d\u091f\u094d\u0930\u093f\u0938
p1496
F0.00098911968348170125
sV\u0932\u0917\u093e.
p1497
F0.00098911968348170125
sV\u092e\u0917\u0930
p1498
F0.00098911968348170125
sV\u0915\u094b\u091a\u0930
p1499
F0.00098911968348170125
sV\u0930\u093f\u091c\u0935\u093e\u0928
p1500
F0.00098911968348170125
sV\u0938\u0947\u0920
p1501
F0.00075700227100681302
sV\u092c\u0947\u0939\u0942\u0926\u093e
p1502
F0.00075700227100681302
sV\u092e\u091c\u0947\u0926\u093e\u0930
p1503
F0.002967359050445104
sV\u0938\u0947\u0932
p1504
F0.00075700227100681302
sV\u0907\u091c\u0939\u093e\u0930
p1505
F0.00098911968348170125
sV\u0938\u0947\u0930
p1506
F0.00075700227100681302
sV\u0907\u0902\u091f\u0930\u0935\u0932
p1507
F2.4873202119606361
sV\u0930\u093e\u091c\u0947\u0936\u094d\u0935\u0930\u0940
p1508
F0.00098911968348170125
sV\u0932\u0949\u0938
p1509
F0.00098911968348170125
sV\u0906\u0928\u0947
p1510
F1.530658591975776
sV\u0915\u0939\u093e
p1511
F2.2959878879636642
sV\u0921\u0930\u0928\u0947
p1512
F0.00075700227100681302
sV\u092c\u0948\u0920\u093e
p1513
F0.00098911968348170125
sV\u0938\u0902\u091c\u0940\u0926\u0917\u0940
p1514
F0.00098911968348170125
sV\u092c\u0930\u094d\u092c\u093e\u0926
p1515
F0.00075700227100681302
sV\u0928\u094c\u0936\u0940\u0928
p1516
F0.00098911968348170125
sV\u0938\u094d\u0915\u094d\u0930\u093f\u092a\u094d\u091f
p1517
F1.2436601059803181
sV\u092d\u093e\u0930\u0926\u094d\u0935\u093e\u091c
p1518
F0.002967359050445104
sV\u0935\u094b\u091f
p1519
F0.00098911968348170125
sV\u0916\u093f\u0938\u0915\u0924\u0940
p1520
F0.00075700227100681302
sV\u092d\u093f\u0921\u093c
p1521
F0.00098911968348170125
sV\u0936\u094b\u092a\u0940\u0938
p1522
F0.00075700227100681302
sV\u0915\u0938\u0930
p1523
F0.00075700227100681302
sV\u0935\u094b\u0917
p1524
F0.00098911968348170125
sV\u092a\u0926\u094d\u092e\u093f\u0928\u0940
p1525
F0.00098911968348170125
sV\u0916\u093e\u0938\u093e
p1526
F0.00075700227100681302
sV\u092c\u093f\u0902\u0926\u093e\u0938
p1527
F0.00098911968348170125
sV\u092e\u0928\u094b\u091c
p1528
F0.00075700227100681302
sV\u0930\u0939\u0915\u0930
p1529
F0.00098911968348170125
sV\u0926\u0930\u094d\u0926
p1530
F0.00075700227100681302
sV\u0938\u0940\u092c\u0940\u0906\u0908
p1531
F0.00098911968348170125
sV\u092a\u094d\u0930\u0924\u093f
p1532
F1.3066271018793274
sV\u0924\u093e\u0930\u093e
p1533
F0.00075700227100681302
sV\u092e\u093f\u0932\u0924\u0940
p1534
F1.3066271018793274
sV\u0916\u0940\u0902\u091a
p1535
F0.00075700227100681302
sV\u0938\u094d\u091f\u0942\u0921\u0947\u0902\u091f\u094d\u0938
p1536
F0.00098911968348170125
sV\u0924\u0947\u091c\u0940
p1537
F0.00075700227100681302
sV\u092c\u0928\u093e\u092f\u093e
p1538
F2.2959878879636642
sV\u0915\u0939\u093e\u0928\u093f\u092f\u094b\u0902
p1539
F0.00075700227100681302
sV\u0928\u093f\u0916\u0930
p1540
F0.00075700227100681302
sV\u0939\u0947\u0932\u093f\u0915\u0949\u092a\u094d\u091f\u0930
p1541
F0.00098911968348170125
sV\u0915\u094b\u0930\u094d\u091f
p1542
F0.00075700227100681302
sV\u092d\u094b\u0932\u0940
p1543
F0.00075700227100681302
sV\u0926\u093f\u0928
p1544
F1.9599406528189911
sV\u0926\u093f\u0932
p1545
F0.0059347181008902079
sV\u0918\u0941\u092e\u093e
p1546
F0.00098911968348170125
sV\u0930\u093e\u091c\u092a\u093e\u0932
p1547
F0.0019782393669634025
sV\u0926\u093f\u090f
p1548
F0.001514004542013626
sV\u0905\u0935\u0938\u0930
p1549
F0.00075700227100681302
sV\u092a\u094d\u0930\u092d\u093e\u0935\u0936\u093e\u0932\u0940
p1550
F1.3066271018793274
sV\u092a\u094d\u0932\u0940\u091c!
p1551
F0.00075700227100681302
sV\u0928\u092f\u093e\u092a\u0928
p1552
F1.91332323996972
sV\u092a\u094b\u0924\u0940
p1553
F0.00075700227100681302
sV\u091b\u0941\u092a\u0947
p1554
F0.00075700227100681302
sV\u0926\u094d\u092e
p1555
F0.00098911968348170125
sV\u092c\u094b\u0932\u094d\u0921
p1556
F3.82664647993944
sV\u0928\u0939\u0940
p1557
F0.00075700227100681302
sV\u0939\u093e\u0936\u092e\u0940
p1558
F0.00075700227100681302
sV\u0909\u0928\u094d\u0939\u0947\u0902
p1559
F0.001514004542013626
sV\u0917\u0947\u092e
p1560
F0.00075700227100681302
sV\u092b\u093f\u0928\u093f\u0936
p1561
F0.00075700227100681302
sV\u0938\u0902\u0938\u094d\u0915\u0943\u0924
p1562
F0.00075700227100681302
sV\u091c\u093e\u0915\u0930
p1563
F0.0019782393669634025
sV\u0915\u0947\u092e\u093f\u0938\u094d\u091f\u094d\u0930\u0940
p1564
F0.003956478733926805
sV\u091d\u093e\u0902\u0938\u0947
p1565
F0.00075700227100681302
sV\u091a\u094b\u0930
p1566
F0.00075700227100681302
sV\u0907\u0902\u0938\u094d\u092a\u0947\u0915\u094d\u091f\u0930
p1567
F1.3066271018793274
sV\u0938\u0947\u0920\u0940
p1568
F0.00075700227100681302
sV\u092a\u0930\u094d\u0938\u0928\u0949\u0932\u094d\u091f\u0940
p1569
F0.00098911968348170125
sV\u0926\u0947\u0924\u093e
p1570
F0.00098911968348170125
sV\u0914\u0930
p1571
F1.2543620178041544
sV\u092c\u0916\u0942\u092c\u0940
p1572
F0.00075700227100681302
sV\u0930\u0916\u0924\u093e
p1573
F0.001514004542013626
sV\u0930\u0939\u093e\u0964
p1574
F1.3066271018793274
sV\u0926\u093f\u0916\u0924\u093e
p1575
F0.00075700227100681302
sV\u0928\u091c\u0930
p1576
F2.1429220287660864
sV\u092c\u0928\u093e\u0908
p1577
F0.00098911968348170125
sV\u0926\u0942\u0930
p1578
F0.00098911968348170125
sV\u092c\u0928\u093e\u090f
p1579
F2.6132542037586548
sV\u091c\u094b\u0915\u0930
p1580
F0.00098911968348170125
sV\u0915\u093e\u0938\u094d\u091f
p1581
F0.00075700227100681302
sV\u092b\u0949\u0932\u094b
p1582
F0.00075700227100681302
sV\u092a\u0948\u0930\u0902\u091f\u094d\u0938
p1583
F0.00098911968348170125
sV\u0915\u0930\u0924\u0947\u0964
p1584
F0.00075700227100681302
sV\u091a\u0915\u094d\u0915\u0930
p1585
F0.00075700227100681302
sV\u092c\u094d\u092f\u0942\u091f\u0940
p1586
F0.00075700227100681302
sV\u0928\u093f\u092d\u093e\u092f\u093e
p1587
F0.003956478733926805
sV\u0938\u094d\u0935\u0930\u0942\u092a
p1588
F0.00098911968348170125
sV\u092c\u0939\u0932
p1589
F0.00075700227100681302
sV\u091c\u094d\u092f\u093e\u0926\u093e
p1590
F16.071915215745648
sV\u091c\u0941\u091f\u0924\u0940
p1591
F0.00075700227100681302
sV\u0935\u0939\u0940\u0902
p1592
F1.658213474640424
sV\u0938\u0926\u093e\u092c\u0939\u093e\u0930
p1593
F0.00075700227100681302
sV\u0918\u0928\u0918\u094b\u0930
p1594
F0.00098911968348170125
sV\u0926\u093f\u0916\u0947\u0964
p1595
F0.00075700227100681302
sV\u0915\u0940\u0964
p1596
F0.0022710068130204391
sV\u0905\u0928\u0941\u092d\u0935
p1597
F1.3066271018793274
sV\u0930\u0916\u0924\u0940
p1598
F0.00098911968348170125
sV\u0905\u0930\u094b\u0921\u093c\u093e
p1599
F0.00075700227100681302
sV\u092c\u0948\u091a\u0932\u0930
p1600
F0.00075700227100681302
sV\u0926\u0947\u0924\u0947
p1601
F2.6132542037586548
sV\u091c\u0941\u090f
p1602
F0.001514004542013626
sV\u0926\u0947\u0924\u0940
p1603
F0.00075700227100681302
sV\u0915\u0947\u0902\u0926\u094d\u0930\u093f\u0924
p1604
F0.00075700227100681302
sV\u0936\u093f\u0902\u0926\u0947
p1605
F0.00098911968348170125
sV\u0938\u0902\u092d\u0932
p1606
F0.00075700227100681302
sV\u092a\u093f\u091f\u0940
p1607
F0.00075700227100681302
sV\u0905\u0930\u0936\u0926
p1608
F0.0019782393669634025
sV\u091c\u093e\u0928
p1609
F1.9599406528189911
sV\u0921\u093e\u0932\u0928\u0947
p1610
F0.00075700227100681302
sV\u0935\u093f\u0928\u094b\u0926
p1611
F0.00075700227100681302
sV\u0928\u093f\u0915\u093e\u0932\u093e
p1612
F0.00075700227100681302
sV\u092d\u093e\u0930\u0924
p1613
F0.00075700227100681302
sV\u091c\u093e\u090f
p1614
F0.0030280090840272521
sV\u0915\u094b
p1615
F1.4349924299772898
sV\u091a\u093e\u0939\u0947
p1616
F0.00098911968348170125
sV\u0915\u0947
p1617
F1.0286213355220237
sV\u0915\u0940
p1618
F1.103655901587393
sV\u092b\u0940\u0932\u094d\u0921
p1619
F0.00075700227100681302
sV\u0915\u093f
p1620
F2.6361342417360585
sV\u0915\u093e
p1621
F1.4895548961424332
sV\u0915\u0939
p1622
F0.00075700227100681302
sV\u0905\u0938\u094d\u0938\u0940
p1623
F0.00075700227100681302
sV\u092c\u0928\u0928\u0947
p1624
F0.0022710068130204391
sV\u092c\u0948\u0915\u0917\u094d\u0930\u093e\u0909\u0902\u0921
p1625
F0.00098911968348170125
sV\u092e\u093f\u0932\u093f\u0928\u0947\u092f\u0930\u2019
p1626
F0.00098911968348170125
sV\u0917\u094b\u0935\u093f\u0902\u0926
p1627
F2.2959878879636642
sV\u0915\u0930
p1628
F1.1479939439818321
sV\u0915\u0932
p1629
F0.00075700227100681302
sV\u0915\u092c
p1630
F0.001514004542013626
sV\u0915\u092e
p1631
F2.2959878879636642
sV\u0926\u0930\u094d\u0936\u0915
p1632
F6.1226343679031041
sV\u0905\u0928\u0941\u092e\u093e\u0928
p1633
F0.00098911968348170125
sV\u0939\u093e\u0935\u0940
p1634
F0.00098911968348170125
sV\u0928\u093e\u092e\u0926\u0947\u0935
p1635
F1.3066271018793274
sV\u0915\u091f
p1636
F0.00075700227100681302
sV\u0905\u092c\u0932\u093e
p1637
F0.00075700227100681302
sV\u091f\u0940\u0938
p1638
F0.00098911968348170125
sV\u0938\u0941\u0938\u094d\u0924
p1639
F2.2959878879636642
sV\u092c\u0940\u0935\u0940
p1640
F0.00075700227100681302
sV\u0909\u0928\u094d\u200d\u0939\u094b\u0902\u0928\u0947
p1641
F0.00075700227100681302
sV\u0915\u0908
p1642
F1.530658591975776
sV\u0905\u0902\u0926\u0930
p1643
F1.3066271018793274
sV\u091f\u0940\u092e
p1644
F0.00098911968348170125
sV\u0938\u094d\u0915\u0942\u0932\u094b\u0902
p1645
F0.00075700227100681302
sV\u091c\u0935\u093e\u0939\u0930
p1646
F0.00075700227100681302
sV\u091c\u0948\u0938\u0940
p1647
F1.3066271018793274
sV\u091c\u0948\u0938\u0947
p1648
F3.82664647993944
sV\u0909\u0932\u091d\u093e
p1649
F0.00075700227100681302
sV\u0938\u0947\u0902\u0938\u0930
p1650
F0.0022710068130204391
sV\u0932\u091a\u0930
p1651
F0.0022710068130204391
sV\u092a\u094d\u092f\u093e\u0930
p1652
F0.00098911968348170125
sV\u0915\u092e\u091c\u094b\u0930
p1653
F0.015897047691143074
sV\u0938\u0942\u091a\u0940
p1654
F0.00098911968348170125
sV\u0930\u091f\u0947
p1655
F0.00075700227100681302
sV\u091c\u093f\u0928
p1656
F0.00075700227100681302
sV\u092a\u093f\u091b\u0932\u0940
p1657
F1.0204390613171839
sV\u092a\u093f\u091b\u0932\u0947
p1658
F0.0022710068130204391
sV\u0915\u0939\u0940\u0902
p1659
F1.2755488266464798
sV\u092b\u0902\u0938
p1660
F0.00075700227100681302
sV\u0917\u093e\u092f\u0924\u094d\u0930\u0940
p1661
F0.00098911968348170125
sV\u091c\u093f\u0938
p1662
F2.6132542037586548
sV\u0915\u0930\u094b\u0921\u093c
p1663
F1.3066271018793274
sV\u091c\u093f\u0938\u0915\u093e
p1664
F0.00098911968348170125
sV\u0939\u0940\u0930\u094b\u0907\u0928
p1665
F0.001514004542013626
sV\u092c\u0928\u0915\u0930
p1666
F0.0022710068130204391
sV\u092e\u0902\u091d\u0947
p1667
F0.00075700227100681302
sV\u091c\u092e\u093e\u0928\u0947
p1668
F0.00075700227100681302
sV\u092c\u0922\u093c\u093e
p1669
F0.00098911968348170125
sV\u0915\u0949\u092e\u093f\u0921\u0940
p1670
F0.0030280090840272521
sV\u0915\u093e\u092c\u093f\u0932
p1671
F0.00098911968348170125
sV\u0938\u0926\u0940
p1672
F0.001514004542013626
sV\u0936\u0941\u0930\u0941\u0906\u0924
p1673
F1.530658591975776
sV\u092c\u093e\u0902\u0927\u0947
p1674
F0.0019782393669634025
sV\u0938\u094b\u091a
p1675
F0.00098911968348170125
sV\u092c\u094c\u0928\u0947
p1676
F0.00075700227100681302
sV\u0909\u0932\u091d\u0940
p1677
F1.3066271018793274
sV\u0930\u0939\u0947\u0964
p1678
F2.6132542037586548
sV\u0926\u0938\u0935\u0940\u0902
p1679
F0.00075700227100681302
sV\u0938\u092c
p1680
F1.3066271018793274
sV\u0926\u094b\u0928\u094b\u0902
p1681
F1.1479939439818321
sV\u0926\u0924\u094d\u0924
p1682
F0.001514004542013626
sV\u0928\u0939\u0940\u0902
p1683
F3.8855179642462008
sV\u0938\u093e
p1684
F0.00075700227100681302
sV\u0907\u092b\u0947\u0915\u094d\u091f
p1685
F0.00075700227100681302
sV\u0938\u0930
p1686
F0.00075700227100681302
sV\u092d\u093e\u0935
p1687
F1.3066271018793274
sV\u092d\u093e\u0908
p1688
F0.00075700227100681302
sV\u092f\u0941\u0928\u093f\u0935\u0930\u094d\u0938\u0932
p1689
F0.00098911968348170125
sV\u0909\u0921\u093c\u093f\u092f\u093e
p1690
F0.00075700227100681302
sV'\u092d\u0947\u091c\u093e
p1691
F0.00098911968348170125
sV\u091b\u0942\u0924\u093e
p1692
F0.00098911968348170125
sV\u0927\u0921\u093c\u0915\u0928\u094b\u0902
p1693
F0.00098911968348170125
sV\u092b\u0930\u0926\u0940\u0928
p1694
F0.001514004542013626
sV\u0915\u093e\u092e\u092f\u093e\u092c
p1695
F3.2665677546983183
sV\u0930\u0939\u0928\u0947
p1696
F2.6132542037586548
sV\u092a\u094d\u0930\u0921\u094d\u092f\u0942\u0938\u0930
p1697
F0.00075700227100681302
sV\u0915\u0948\u091f\u0930\u0940\u0928\u093e
p1698
F0.00075700227100681302
sV\u092c\u093f\u0917\u0921\u093c\u0947
p1699
F0.00098911968348170125
sV\u0926\u0942\u0932\u094d\u0939\u093e
p1700
F1.3066271018793274
sV\u091b\u0942\u0924\u0947
p1701
F0.0019782393669634025
sV\u0906\u0932\u093e
p1702
F0.00075700227100681302
sV\u0938\u094b
p1703
F0.00075700227100681302
sV\u092d\u0940\u0921\u093c
p1704
F0.001514004542013626
sV\u0938\u094c
p1705
F0.00075700227100681302
sV\u0938\u0940
p1706
F1.3066271018793274
sV\u0938\u093e\u0927\u093e\u0930\u0923
p1707
F0.001514004542013626
sV\u0938\u0947
p1708
F1.1479939439818319
sV\u092e\u0947\u0902\u091f\u0915\u0930\u093e\u0935
p1709
F0.00075700227100681302
sV\u0916\u0940\u0902\u091a\u0928\u0947
p1710
F0.00075700227100681302
sV\u091c\u091c\u094d\u092c\u093e
p1711
F0.00098911968348170125
sV\u092a\u0941\u0930\u0938\u094d\u0915\u093e\u0930
p1712
F0.00098911968348170125
sV\u0939\u0948\u0964,
p1713
F0.00075700227100681302
sV\u0921\u0930
p1714
F0.00075700227100681302
sV\u0917\u0941\u0932\u091c\u093e\u0930
p1715
F0.00098911968348170125
sV\u0932\u0941\u092d\u093e\u0924\u093e
p1716
F0.00075700227100681302
sV\u0909\u0926\u092f
p1717
F0.00075700227100681302
sV\u0932\u0947\u0924\u0947\u0964
p1718
F0.00075700227100681302
sV\u0905\u0938\u0930\u0926\u093e\u0930
p1719
F1.3066271018793274
sV\u0936\u094d\u0930\u0941\u0924\u093f
p1720
F0.00098911968348170125
sV\u092c\u0947\u0938\u094d\u0921
p1721
F0.00075700227100681302
sV\u0917\u093e\u092f\u092c
p1722
F0.00075700227100681302
sV\u0915\u0941\u092e\u093e\u0930
p1723
F2.6132542037586548
sV\u0916\u093f\u0932\u093e\u0921\u093c\u0940
p1724
F0.00075700227100681302
sV\u0905\u0928\u0941\u0915\u0942\u0932
p1725
F0.00098911968348170125
sV\u091a\u0902\u0926
p1726
F1.530658591975776
sV\u0921\u093e\u092f\u0932\u0949\u0917
p1727
F1.7857683573050718
sV\u091c\u0948\u0915\u0940
p1728
F3.82664647993944
sV\u0935\u093e\u0926\u0947
p1729
F0.00098911968348170125
sV\u0932\u093e\u0936
p1730
F0.00075700227100681302
sV\u0915\u091a\u0942\u092e\u0930
p1731
F0.00075700227100681302
sV\u091c\u0930\u0942\u0930\u0924
p1732
F0.001514004542013626
sV\u0938\u0941\u0902\u0926\u0930
p1733
F0.0019782393669634025
sV\u092a\u0941\u0930\u092c\u093f\u092f\u093e
p1734
F0.00098911968348170125
sV\u0921\u0949
p1735
F0.00098911968348170125
sV\u092a\u0939\u0932\u0940
p1736
F0.0059347181008902079
sV\u092c\u0948\u0915
p1737
F0.00098911968348170125
sV\u091f\u093e\u0907\u0915\u0942\u0928
p1738
F0.00075700227100681302
sV\u092a\u0939\u0932\u0947
p1739
F1.9898561695685091
sV\u091a\u0936\u094d\u092e\u093e
p1740
F0.00098911968348170125
sV\u091c\u093f\u0938\u0938\u0947
p1741
F0.00098911968348170125
sV\u0924\u0941\u0937\u093e\u0930
p1742
F0.00075700227100681302
sV\u091a\u0941\u091f\u0940\u0932\u093e\u092a\u0928
p1743
F0.00098911968348170125
sV\u0928\u092f\u0947
p1744
F0.00098911968348170125
sV\u0935\u0940\u0930\u0941
p1745
F0.00098911968348170125
sV\u092e\u0941\u0915\u093e\u092c\u0932\u0947
p1746
F2.6132542037586548
sV\u091c\u092e\u0915\u0930
p1747
F0.00075700227100681302
sV\u092e\u0941\u0926\u094d\u0926\u0947
p1748
F0.00075700227100681302
sV\u0938\u093f\u0928\u094d\u0939\u093e
p1749
F1.3066271018793274
sV\u092e\u0939\u0902\u0917\u0947
p1750
F0.00075700227100681302
sV\u0938\u094d\u091f\u093e\u0930\u094d\u0938
p1751
F3.82664647993944
sV\u092e\u0939\u0902\u0917\u0940
p1752
F0.00075700227100681302
sV\u092c\u0902\u0927\u0940
p1753
F0.00098911968348170125
sV\u092d\u0930\u0915\u0930
p1754
F0.001514004542013626
sV\u0915\u0930\u093e\u0928\u0947
p1755
F0.00075700227100681302
sV)
F0.00075700227100681302
sV\u092c\u0949\u0938
p1756
F3.9198813056379822
sV\u0928\u093e\u091f\u0915\u0940\u092f
p1757
F0.0019782393669634025
sV\u0938\u094d\u091f\u093e\u0930\u094d\u091f
p1758
F1.3066271018793274
sV\u0909\u0902\u0917\u0932\u093f\u092f\u094b\u0902
p1759
F0.00075700227100681302
sV\u0936\u094d\u0930\u0940\u0932\u0902\u0915\u093e
p1760
F0.00075700227100681302
sV\u0907\u0936\u094d\u0915\u093f\u092f\u093e
p1761
F0.00098911968348170125
sV\u092b\u091f\u0949\u0917\u094d\u0930\u092b\u0940
p1762
F0.00098911968348170125
sV\u091c\u093f\u0928\u0915\u0940
p1763
F0.00075700227100681302
sV\u0938\u0941\u0928\u093e\u0908
p1764
F0.00075700227100681302
sV\u092e\u091c\u093e\u0915
p1765
F0.00075700227100681302
sV\u092b\u093f\u0932\u094d\u092e\u094b\u0902
p1766
F1.1614463127816244
sV\u092d\u093e\u0937\u093e
p1767
F0.00098911968348170125
sV\u0926\u094c\u0921\u093c
p1768
F0.00075700227100681302
sV\u0928\u092f\u093e
p1769
F1.9599406528189911
sV\u092e\u0941\u0915\u093e\u092c\u0932\u093e
p1770
F0.00075700227100681302
sV\u0932\u0915
p1771
F0.00075700227100681302
sV\u0932\u0917
p1772
F0.001514004542013626
sV\u0905\u0928\u0902\u0924
p1773
F0.001514004542013626
sV\u0939\u093e\u0938\u093f\u0932
p1774
F0.00098911968348170125
sV\u0915\u0930\u0924\u093e\u0964
p1775
F0.00075700227100681302
sV\u0924\u091c\u0941\u0930\u094d\u092c\u093e
p1776
F0.00075700227100681302
sV\u0932\u0935
p1777
F1.3066271018793274
sV\u0917\u091c\u092c
p1778
F1.9599406528189911
sV\u0938\u0924\u094d\u0924\u0930-\u0905\u0938\u094d\u0938\u0940
p1779
F0.00075700227100681302
sV\u091c\u0941\u0924\u094d\u0936\u0940
p1780
F0.00098911968348170125
sV\u0938\u092e\u0940\u0930
p1781
F1.3066271018793274
sV\u0930\u0939\u0924\u093e\u0964
p1782
F0.001514004542013626
sV\u0938\u0902\u091c\u094b\u0928\u0947
p1783
F0.00075700227100681302
sV\u0906\u092f\u093e
p1784
F0.00075700227100681302
sV\u0936\u093e\u0930\u094d\u092a
p1785
F0.00075700227100681302
sV\u0932\u0947
p1786
F0.00075700227100681302
sV\u0932\u0940
p1787
F0.00075700227100681302
sV\u0915\u0930\u0947\u0902\u0964
p1788
F0.00075700227100681302
sV\u0932\u094b
p1789
F0.00098911968348170125
sV\u0939\u0941\u090f\u0964
p1790
F0.00075700227100681302
sV\u0915\u093e\u0915\u093e
p1791
F0.0030280090840272521
sV\u092a\u093e\u0928\u0940
p1792
F0.00075700227100681302
sV\u091c\u0935\u093e\u092c
p1793
F6.5331355093966366
sV\u0930\u0947\u0916\u093e\u0902\u0915\u093f\u0924
p1794
F0.00075700227100681302
sV\u092c\u0948\u0920\u0924\u093e
p1795
F0.00098911968348170125
sV\u0938\u0939\u093e\u092f\u0915
p1796
F0.00075700227100681302
sV\u0926\u0941\u0930\u094d\u0926\u0936\u093e
p1797
F1.3066271018793274
sV\u091c\u0932\u0940\u0932
p1798
F0.00098911968348170125
sV\u0938\u094d\u0915\u094b\u0930
p1799
F0.00098911968348170125
sV\u0938\u0902\u0926\u0947\u0936
p1800
F0.00075700227100681302
sV\u0926\u0947\u0916\u0915\u0930
p1801
F3.82664647993944
sV\u091c\u092e\u0947
p1802
F6.5331355093966366
sV\u0938\u092c\u0928\u0947
p1803
F1.3066271018793274
sV\u0915\u0938\u094c\u091f\u0940
p1804
F1.3066271018793274
sV\u0915\u094d\u092f\u0942\u0902
p1805
F0.00075700227100681302
sV\u092a\u0926\u094d\u092e\u092a\u094d\u0930\u093f\u092f\u093e
p1806
F0.00098911968348170125
sV\u092e\u093e\u0938\u094d\u091f\u0930\u0940
p1807
F0.00098911968348170125
sV\u0930\u0942\u092e\u0940
p1808
F0.00075700227100681302
sV\u0928\u093f\u092d\u093e\u0908
p1809
F0.00075700227100681302
sV\u092a\u094d\u0930\u092d\u093e\u0935\u093f\u0924
p1810
F1.530658591975776
sV\u0911\u0928
p1811
F2.6132542037586548
sV\u0911\u092b
p1812
F0.00075700227100681302
sV\u0910\u0938\u093e
p1813
F1.6837244511733538
sV\u0936\u0930\u092e\u0928
p1814
F0.002967359050445104
sV\u0938\u0941\u092a\u0930\u094d\u0923
p1815
F0.00075700227100681302
sV\u092c\u0948\u0920\u0924\u0940
p1816
F0.00098911968348170125
sV\u092c\u093e\u0902\u0927\u0928\u0947
p1817
F1.3066271018793274
sV\u0905\u092a\u0942\u0930\u094d\u0935
p1818
F0.00098911968348170125
sV\u0932\u093e\u0907\u0935
p1819
F0.00098911968348170125
sV\u0932\u093e\u0907\u092b
p1820
F1.3066271018793274
sV\u0920\u0939\u0930\u093e\u0935
p1821
F0.00075700227100681302
sV\u0905\u0935\u0927\u093f
p1822
F0.00075700227100681302
sV\u0939\u0948
p1823
F1.4565944665575932
sV\u0939\u094b
p1824
F1.2026603222666812
sV\u0905\u0915\u0938\u094d\u092e\u093e\u0924
p1825
F0.00075700227100681302
sV\u091c\u0928\u094d\u0928\u0924
p1826
F0.0019782393669634025
sV\u0939\u0940
p1827
F1.4759922136909267
sV\u091c\u093f\u0928\u092e\u0947\u0902
p1828
F0.00075700227100681302
sV\u0935\u093f\u0937\u092f
p1829
F0.0019782393669634025
sV\u090f\u0902\u0921
p1830
F1.3066271018793274
sV\u090f\u0915\u091f\u0915
p1831
F0.00075700227100681302
sV\u092c\u0902\u0926
p1832
F0.001514004542013626
sV\u0915\u0924\u093e\u0930
p1833
F0.00098911968348170125
sV\u0935\u093e\u091c\u092a\u0947\u092f\u0940
p1834
F0.00075700227100681302
sV'\u0926\u0947
p1835
F0.00098911968348170125
sV\u092c\u093f\u0916\u0930
p1836
F0.00075700227100681302
sV\u0936\u094d\u0930\u0947\u092f\u0938
p1837
F0.003956478733926805
sV\u0939\u092e
p1838
F0.00075700227100681302
sV\u0935\u093f\u0926\u0947\u0936
p1839
F0.00098911968348170125
sV\u092b\u093f\u0915\u094d\u0936\u0928
p1840
F0.00098911968348170125
sV\u0939\u0926
p1841
F6.5331355093966366
sV\u0939\u0930
p1842
F1.8292779426310584
sV\u0915\u0924\u094d\u0924\u0908
p1843
F0.00075700227100681302
sV\u0924\u0947\u091c
p1844
F0.00098911968348170125
sV\u0964
F1.530658591975776
sV\u0924\u0947\u0932
p1845
F0.00075700227100681302
sV\u0915\u0930\u093e\u0908\u0964
p1846
F0.00075700227100681302
sV\u092d\u093e\u0935\u094b\u0902
p1847
F0.00075700227100681302
sV\u092a\u0930\u0947\u0936
p1848
F1.530658591975776
sV\u0920\u0940\u0915
p1849
F0.001514004542013626
sV\u092f\u0915\u0940\u0928\u0928
p1850
F0.00098911968348170125
sV\u091a\u0947\u0939\u0930\u0947
p1851
F1.530658591975776
sV\u0917\u090f
p1852
F6.1226343679031041
sV\u0938\u0935\u093e\u0932
p1853
F0.001514004542013626
sV\u090f
F0.00075700227100681302
sV\u0917\u0908
p1854
F1.2755488266464798
sV\u0915\u0948\u0930\u092e
p1855
F0.00098911968348170125
sV\u0924\u093e\u0930\u0940\u092b
p1856
F0.002967359050445104
sV\u0938\u0941\u0928\u0940\u0932
p1857
F0.00075700227100681302
sV\u092c\u094b\u0932\u0928\u0947
p1858
F0.001514004542013626
sV\u0909\u0932\u094d\u0932\u0947\u0916\u0928\u0940\u092f
p1859
F0.00098911968348170125
sV\u092c\u093f\u0928\u093e
p1860
F1.0204390613171839
sV\u0921\u093e\u092f\u0930\u0947\u0915\u094d\u0936\u0928
p1861
F0.00098911968348170125
sV\u091c\u092e\u0940
p1862
F7.8397626112759644
sV\u0926\u094c\u0921\u093c\u0924\u0940
p1863
F0.00098911968348170125
sV\u0915\u0948\u0930\u0915\u094d\u091f\u0930\u094d\u0938
p1864
F0.00075700227100681302
sV\u0932\u093e\u0909\u0921
p1865
F0.00098911968348170125
sV\u0932\u093f\u090f
p1866
F1.0050977706764055
sV\u091c\u0949\u0928\u0940
p1867
F0.00075700227100681302
sV\u0906\u0916\u093f\u0930\u0940
p1868
F0.00075700227100681302
sV\u092c\u0941\u0930\u093e
p1869
F0.00075700227100681302
sV\u0907\u0915\u094d\u0915\u0940\u0938\u0935\u0940\u0902
p1870
F0.00075700227100681302
sV\u0935\u0915\u094d\u0924
p1871
F0.001514004542013626
sV\u0936\u094d\u0930\u0943\u0926\u094d\u0927\u093e
p1872
F0.00075700227100681302
sV\u0905\u092c
p1873
F5.3573050719152162
sV'
F1.1479939439818321
sV\u0928\u093e\u0915\u093e\u092e
p1874
F0.001514004542013626
sV\u090f\u0939\u0938\u093e\u0938
p1875
F2.2959878879636642
sV\u0930\u093e\u092e\u092a\u093e\u0932
p1876
F0.00075700227100681302
sV\u0926\u0940\u0964
p1877
F0.0019782393669634025
sV\u091a\u0947\u0939\u0930\u093e
p1878
F0.001514004542013626
sV\u0936\u093e\u0939\u0930\u0941\u0916
p1879
F0.003956478733926805
s.