(dp1
V
F0.0016570008285004142
sV\u092b\u093e\u092f\u0930
p2
F0.00082850041425020708
sV\u0906
F3.251035625517813
sV\u0916\u0930\u093e\u092c
p3
F0.012232415902140673
sV\u0921\u0940\u0935\u0940\u0921\u0940
p4
F1.0765800203873597
sV\u091a\u093e\u0939\u0924\u0940
p5
F0.00082850041425020708
sV\u0917\u0924\u093f
p6
F1.0836785418392709
sV\u092a\u095c\u0947
p7
F0.00082850041425020708
sV\u091f\u0949\u0930\u094d\u091a
p8
F0.00082850041425020708
sV\u092c\u093e\u0938\u0940
p9
F0.00076452599388379206
sV\u0915\u0902\u092c\u0932
p10
F0.00082850041425020708
sV\u0921\u0948\u092e
p11
F0.00082850041425020708
sV\u0907\u0924\u094d\u0930
p12
F5.4183927091963549
sV\u091c\u094b\u0916\u093f\u092e
p13
F0.00076452599388379206
sV\u0905\u0928\u0942\u0920\u093e
p14
F0.00082850041425020708
sV\u0938\u0942\u0905\u0930
p15
F0.00082850041425020708
sV\u0930\u0947\u0921\u093f\u092f\u094b
p16
F0.0015290519877675841
sV\u092c\u0924\u093e\u0928\u0947
p17
F0.00082850041425020708
sV\u091a\u0941\u0928\u094c\u0924\u0940\u092a\u0942\u0930\u094d\u0923
p18
F0.00082850041425020708
sV\u092a\u0921\u093c\u093e
p19
F0.0015290519877675841
sV\u092a\u095c\u093e
p20
F0.0022935779816513763
sV\u0938\u093e\u0902\u0938\u094d\u0915\u0943\u0924\u093f\u0915
p21
F0.00082850041425020708
sV\u0916\u093f\u0902\u091a\u093e\u0935
p22
F0.00076452599388379206
sV\u0926\u0947\u0928\u0940
p23
F0.00076452599388379206
sV\u091f\u0948\u0915\u094d\u0938
p24
F0.00076452599388379206
sV\u092a\u093e\u0916\u0902\u0921\u0940
p25
F0.00076452599388379206
sV\u091a\u093e\u0939\u0924\u093e
p26
F3.251035625517813
sV\u0915\u0930\u0947\u0902\u0917\u0947
p27
F1.0836785418392709
sV\u0935\u0947\u092c
p28
F0.00076452599388379206
sV\u092a\u094d\u0930\u0947\u0930\u0923\u093e\u0926\u093e\u092f\u0915
p29
F0.00076452599388379206
sV\u0917\u0947\u0902\u0926
p30
F0.0016570008285004142
sV\u092c\u0926\u0924\u0930
p31
F0.0015290519877675841
sV(\u0914\u0930
p32
F0.00076452599388379206
sV\u0915\u094d\u0937\u0947\u0924\u094d\u0930\u094b\u0902
p33
F0.00082850041425020708
sV\u092e\u0941\u0936\u094d\u0915\u093f\u0932
p34
F1.6148700305810397
sV\u0918\u095c\u0940
p35
F0.0016570008285004142
sV\u092a\u095d\u0928\u0947
p36
F0.00082850041425020708
sV\u092c\u091a\u094d\u091a\u094b\u0902
p37
F1.3004142502071252
sV\u092a\u094d\u0930\u092d\u093e\u0935
p38
F1.0836785418392709
sV\u0916\u094b
p39
F0.0015290519877675841
sV\u0921\u0949\u0932\u0930
p40
F3.6911314984709485
sV\u0935\u093f\u0927\u0947\u092f\u0915
p41
F0.00076452599388379206
sV\u092e\u0939\u0938\u0942\u0938
p42
F0.00082850041425020708
sV\u0935\u0930\u094d\u0923\u093f\u0924
p43
F3.251035625517813
sV\u0915\u0947\u0935\u0932
p44
F2.3992354740061161
sV\u0905\u0928\u0941\u092e\u0924\u093f
p45
F0.00082850041425020708
sV\u0928\u093f\u0930\u094d\u092e\u093e\u0924\u093e
p46
F0.0015290519877675841
sV\u0926\u0947\u0928\u093e
p47
F0.00076452599388379206
sV\u092d\u094d\u0930\u092e\u0923
p48
F0.00082850041425020708
sV\u092c\u0921\u093c\u093e
p49
F3.251035625517813
sV\u092c\u093f\u0938\u094d\u0924\u0930
p50
F1.0836785418392709
sV\u0926\u0941\u0930\u094d\u0917\u0902\u0927
p51
F0.00076452599388379206
sV\u091a\u0947\u0924\u093e\u0935\u0928\u0940:
p52
F0.00076452599388379206
sV\u092a\u0930\u093f\u091a\u093e\u0930\u093f\u0915\u093e
p53
F0.00082850041425020708
sV\u0909\u092a\u092f\u094b\u0917\u0915\u0930\u094d\u0924\u093e\u0913\u0902
p54
F0.00082850041425020708
sV\u0915\u093e\u0930\u094d\u092f\u0915\u093e\u0932
p55
F0.00082850041425020708
sV\u092e\u0939\u093e\u0928
p56
F3.7928748964374477
sV\u0916\u093e\u092e\u093f\u092f\u093e\u0902
p57
F0.00076452599388379206
sV\u095b\u093f\u092a
p58
F0.00076452599388379206
sV\u092e\u093e\u0938\u094d\u091f\u0930\u092a\u0940\u0938
p59
F0.00076452599388379206
sV\u092a\u093e\u0930\u0926\u0930\u094d\u0936\u0940
p60
F0.00076452599388379206
sV\u0915\u092e\u0940
p61
F0.00076452599388379206
sV\u0909\u0924\u094d\u0924\u0947\u091c\u0915
p62
F0.00082850041425020708
sV\u0938\u0939\u092e\u0924
p63
F1.3841743119266057
sV\u091a\u0940\u0928
p64
F0.00076452599388379206
sV\u0935\u093f\u091a\u093e\u0930
p65
F1.0836785418392709
sV\u0916\u093c\u0930\u093e\u092c
p66
F0.00076452599388379206
sV\u0915\u092e\u0930\u0947
p67
F0.00076452599388379206
sV\u092e\u093f\u0932\u0928\u0938\u093e\u0930
p68
F1.0836785418392709
sV\u0921\u093e\u0932\u093e
p69
F0.00076452599388379206
sV\u0915\u094d\u0932\u093f\u092a
p70
F0.00082850041425020708
sV\u0915\u094b\u0908
p71
F1.3182612494539099
sV\u091a\u0940\u0930
p72
F0.00082850041425020708
sV\u091c\u094b
p73
F1.4449047224523612
sV\u0930\u0941\u091d\u093e\u0928
p74
F0.00076452599388379206
sV\u092a\u0924\u093f
p75
F0.0057995028997514502
sV\u092a\u0924\u093e
p76
F0.0030581039755351682
sV\u091a\u0940\u091c
p77
F0.00076452599388379206
sV\u091c\u093e\u0928\u092c\u0942\u091d\u0915\u0930
p78
F0.00076452599388379206
sV\u0909\u0938\u0915\u0947
p79
F0.0041425020712510356
sV\u0928\u093f\u0936\u094d\u091a\u093f\u0924
p80
F0.0041425020712510356
sV\u091a\u093f\u092a
p81
F0.00082850041425020708
sV\u0915\u094b\u0921
p82
F0.00076452599388379206
sV\u0938\u0941\u0917\u0902\u0927\u093f\u0924
p83
F0.0016570008285004142
sV\u0926\u0938\u094d\u0924\u0915
p84
F0.00076452599388379206
sV\u092a\u0930\u0947\u0936\u093e\u0928\u0940
p85
F2.1673570836785419
sV\u091c\u094d\u092f\u093e\u0926\u093e\u0924\u0930
p86
F0.00076452599388379206
sV95
p87
F0.00076452599388379206
sV\u0938\u0942\u0930\u094d\u092f
p88
F0.00076452599388379206
sV\u0924\u0938\u094d\u0935\u0940\u0930
p89
F4.6139143730886856
sV\u0926\u0930\u094d\u0936\u093e\u092f\u093e
p90
F0.00082850041425020708
sV\u091c\u093e
p91
F1.8455657492354742
sV\u0916\u0941\u0926
p92
F0.0016570008285004142
sV\u091a\u0940\u095b
p93
F0.00082850041425020708
sV\u0906\u0908\u0938
p94
F0.00076452599388379206
sV\u0939\u092e\u0928\u0947
p95
F1.0836785418392709
sV\u091c\u092c
p96
F2.1531600407747193
sV\u091f\u094d\u092f\u0942\u091f\u094b\u0930\u093f\u092f\u0932
p97
F0.00082850041425020708
sV\u0916\u0941\u0936
p98
F24.924606462303231
sV\u0930\u0941\u091d\u093e\u0928\u094b\u0902
p99
F0.00082850041425020708
sV\u0905\u0928\u094d\u092f
p100
F3.2297400611620795
sV\u0906\u0935\u0936\u094d\u092f\u0915\u0924\u093e
p101
F0.00076452599388379206
sV\u0917\u093e\u0928\u0947
p102
F0.0038226299694189602
sV\u092c\u0947\u0915\u093e\u0930
p103
F0.012232415902140673
sV\u0905\u0915\u094d\u0937\u0930
p104
F0.0015290519877675841
sV\u0915\u0948\u0938\u0947
p105
F2.7683486238532113
sV\u0907\u0938\u0940\u0932\u093f\u090f
p106
F0.00076452599388379206
sV\u092a\u0940\u0920
p107
F1.0836785418392709
sV\u0926\u0942\u0938\u0930\u0947
p108
F0.0030581039755351682
sV\u0915\u093e\u0930\u094d\u092f\u0915\u094d\u0930\u092e\u094b\u0902
p109
F0.00076452599388379206
sV\u0926\u0942\u0938\u0930\u0940
p110
F0.00076452599388379206
sV\u092a\u0915\u095c\u0924\u093e
p111
F0.00076452599388379206
sV\u0930\u0926\u094d\u0926
p112
F0.00076452599388379206
sV\u0936\u094d\u0930\u0940
p113
F0.00082850041425020708
sV\u0916\u093f\u0932\u093e\u092b
p114
F1.0836785418392709
sV\u0926\u0942\u0930\u092c\u0940\u0928
p115
F0.00076452599388379206
sV\u092e\u091c\u093e\u0915\u093f\u092f\u093e
p116
F0.00082850041425020708
sV\u0917\u094d\u0930\u093e\u0939\u0915
p117
F1.8455657492354742
sV\u0938\u094d\u0932\u093e\u0907\u0921
p118
F0.00082850041425020708
sV\u0935\u093f\u092d\u093f\u0928\u094d\u0928
p119
F0.00076452599388379206
sV\u0905\u0917\u0932\u0940
p120
F0.00076452599388379206
sV\u0915\u0930\u093e\u0924\u093e
p121
F0.00082850041425020708
sV\u0905\u0917\u0932\u0947
p122
F0.0016570008285004142
sV\u092b\u093f\u0917\u094d\u0932\u0947\u0905\u0935\u0947\u0938
p123
F0.00082850041425020708
sV\u0938\u0941\u0935\u093f\u0927\u093e
p124
F1.0836785418392709
sV\u092e\u0938\u094d\u0924
p125
F0.00082850041425020708
sV\u0935\u0930\u094d\u0937
p126
F2.1673570836785419
sV\u0926\u0930\u094d\u091c\u0947
p127
F1.8455657492354742
sV\u0932\u093e\u092a\u0930\u0935\u093e\u0939\u0940
p128
F0.0015290519877675841
sV\u092c\u0939\u0941\u0924
p129
F2.1673570836785419
sV\u0932\u0940\u092a
p130
F0.00076452599388379206
sV\u0907\u0932\u093e\u0935\u093e
p131
F0.00082850041425020708
sV\u0916\u0947\u0932\u093e
p132
F0.00082850041425020708
sV\u0938\u0947\u0935\u093e
p133
F1.6255178127589065
sV\u0935\u094b
p134
F0.0033140016570008283
sV\u0926\u094b\u0939\u0930\u0940
p135
F0.00082850041425020708
sV\u092c\u093e\u0930\u0947
p136
F1.54811220262753
sV\u0935\u0947
p137
F1.0836785418392709
sV\u0926\u0947\u0916\u0928\u0947
p138
F1.2303771661569827
sV\u0930\u0938\u094d\u0938\u0940
p139
F1.0836785418392709
sV\u0930\u0947\u091f\u093f\u0902\u0917
p140
F0.00076452599388379206
sV\u092a\u0930\u093f\u091a\u093e\u0932\u0928
p141
F0.00082850041425020708
sV\u0927\u0930\u094d\u092e\u094b\u0902
p142
F0.00076452599388379206
sV\u0936\u0940\u0924\u0932
p143
F0.00082850041425020708
sV\u0927\u094b\u0928\u0947
p144
F0.00082850041425020708
sV\u092c\u093e\u0902\u0939
p145
F0.0015290519877675841
sV28-135mm
p146
F0.00076452599388379206
sV\u0938\u093e\u092c\u093f\u0924
p147
F0.00076452599388379206
sV\u092e\u0942\u0932\u094d\u092f\u094b\u0902
p148
F0.00076452599388379206
sV\u0913\u0939
p149
F0.00076452599388379206
sV\u0918\u091f\u093e\u0928\u0947
p150
F0.00082850041425020708
sV\u0913\u0930
p151
F0.00076452599388379206
sV\u0927\u093e\u0930
p152
F0.00076452599388379206
sV\u0909\u092a\u091a\u093e\u0930
p153
F0.00076452599388379206
sV\u0926\u0947\u0916\u0928\u093e
p154
F0.0016570008285004142
sV\u0935\u0939
p155
F1.8964374482187243
sV\u0905\u0915\u094d\u0938\u0930
p156
F0.00076452599388379206
sV\u0909\u0926\u093e\u0938
p157
F0.00082850041425020708
sV\u091c\u0940\u0935\u0902\u0924
p158
F0.00082850041425020708
sV\u0935\u093e\u092a\u0938\u0940
p159
F2.7683486238532113
sV\u0924\u0917\u095c\u093e
p160
F0.00082850041425020708
sV\u0939\u092e\u0947\u0936\u093e
p161
F0.0024855012427506215
sV\u0935\u0928
p162
F0.00076452599388379206
sV\u0938\u094d\u092e\u0943\u0924\u093f
p163
F0.00082850041425020708
sV\u092e\u093e\u092f\u093e\u0935\u0940
p164
F0.00082850041425020708
sV\u092c\u093e\u0939\u0947\u0902
p165
F0.00076452599388379206
sV\u092c\u093e\u0924
p166
F1.5379714576962282
sV\u0932\u0947\u0915\u093f\u0928
p167
F1.404234809200904
sV\u092c\u093e\u0926
p168
F1.691768603465851
sV\u091c\u092c\u0915\u093f
p169
F0.00076452599388379206
sV\u092a\u094d\u0932\u093e\u0938\u094d\u092e\u093e
p170
F0.00076452599388379206
sV\u092a\u093f\u0924\u093e
p171
F0.00082850041425020708
sV\u091a\u093f\u0932\u094d\u0932\u093e\u090a\u0901
p172
F0.00082850041425020708
sV\u0928\u093f\u0902\u0926\u093e
p173
F0.00082850041425020708
sV\u092a\u095d\u093e
p174
F0.0016570008285004142
sV\u0938\u093e\u0930\u0947
p175
F0.00082850041425020708
sV\u0930\u0949\u0915
p176
F0.00082850041425020708
sV\u092c\u093e\u0930
p177
F1.9506213753106876
sV\u0909\u092c\u093e\u090a
p178
F0.0053516819571865441
sV\u0935\u0939\u093e\u0901
p179
F1.5379714576962282
sV\u0928\u093f\u0936\u093e\u0928
p180
F0.0015290519877675841
sV\u0915\u093e\u091c\u0932
p181
F0.00082850041425020708
sV\u0924\u0932\u0935\u093e\u0930
p182
F0.00082850041425020708
sV\u0932\u093e\u0928\u0947
p183
F1.0836785418392709
sV\u0915\u092d\u0940
p184
F1.8455657492354738
sV\u0915\u0920\u093f\u0928\u093e\u0907\u092f\u094b\u0902
p185
F0.00076452599388379206
sV\u0932\u0915\u095c\u0940
p186
F0.00076452599388379206
sV\u0905\u0926\u093e
p187
F0.00082850041425020708
sV\u0932\u094c\u091f\u093e
p188
F0.0022935779816513763
sV\u0907-18
p189
F0.00076452599388379206
sV\u0936\u0948\u092e\u094d\u092a\u0942
p190
F0.00082850041425020708
sV\u092a\u093e\u0930\u094d\u091f\u0940
p191
F0.00082850041425020708
sV\u0938\u094d\u0932\u0940\u092a\u093f\u0902\u0917
p192
F0.00076452599388379206
sV\u092e\u093e\u0924\u094d\u0930\u093e
p193
F1.0836785418392709
sV\u092a\u095d\u0940
p194
F0.00082850041425020708
sV\u092c\u094b\u0930\u093f\u0902\u0917
p195
F0.0022935779816513763
sV\u0915\u094d\u0932\u093f\u0928\u093f\u0915
p196
F0.00082850041425020708
sV\u0938\u0930\u0932
p197
F6.502071251035626
sV\u0924\u094b\u095c\u0928\u0947
p198
F0.00076452599388379206
sV\u0911\u0938\u094d\u0915\u0930
p199
F0.00082850041425020708
sV\u0935\u094d\u092f\u093e\u092a\u0915
p200
F0.00082850041425020708
sV\u0924\u0938\u094d\u0935\u0940\u0930\u0947\u0902
p201
F0.0024855012427506215
sV\u0939\u0932\u094d\u0915\u0947
p202
F0.00076452599388379206
sV\u091a\u0932\u093e\u0928\u0947
p203
F0.00076452599388379206
sV\u092b\u0947\u0902\u0915
p204
F0.00076452599388379206
sV\u0905\u0927\u094d\u092f\u093e\u092f\u094b\u0902
p205
F0.00076452599388379206
sV\u0935\u0940\u0921\u093f\u092f\u094b
p206
F0.0015290519877675841
sV\u0938\u094d\u0935\u093f\u092e\u094d\u0935\u0947\u0905\u0930
p207
F0.00076452599388379206
sV\u091b\u094b\u091f\u0947
p208
F1.5379714576962282
sV\u0917\u092e\u093e\u0917\u092e\u0928
p209
F0.00082850041425020708
sV\u091b\u094b\u091f\u0940
p210
F1.0836785418392709
sV\u091f\u0940
p211
F1.0836785418392709
sV\u0918\u0928\u093e
p212
F0.00076452599388379206
sV\u0909\u092a\u0915\u0930\u0923
p213
F0.0024855012427506215
sV\u090f\u0935\u0930\u0947\u0921\u0940
p214
F0.00076452599388379206
sV\u091b\u094b\u091f\u093e
p215
F1.2918960244648316
sV\u092d\u094d\u0930\u0937\u094d\u091f
p216
F0.00076452599388379206
sV\u090f\u0915\u0932
p217
F0.00076452599388379206
sV\u0928\u094c\u091f\u0902\u0915\u0940
p218
F0.00076452599388379206
sV\u0915\u094b\u0921\u0915
p219
F0.00076452599388379206
sV\u092c\u094b\u0924\u0932
p220
F0.0016570008285004142
sV\u0939\u0932\u094d\u0915\u093e
p221
F0.0041425020712510356
sV\u0935\u093f\u0915\u0932\u094d\u092a
p222
F0.00076452599388379206
sV\u0905\u091a\u094d\u091b\u093e\u0908:
p223
F0.00076452599388379206
sV\u0905\u092d\u093f\u0928\u092f
p224
F0.0016570008285004142
sV\u0915\u094d\u0930\u093f\u092a\u094d\u091f\u093f\u0915
p225
F0.00076452599388379206
sV\u091c\u0948\u0915
p226
F0.00076452599388379206
sV\u092a\u0924\u0932\u093e
p227
F0.00076452599388379206
sV\u092a\u0939\u091a\u093e\u0928\u0928\u0947
p228
F0.00082850041425020708
sV\u0939\u0930\u0940
p229
F0.00076452599388379206
sV\u092e\u094b\u0939\u0930\u0947
p230
F0.00076452599388379206
sV\u0938\u094d\u0925\u093e\u0928\u0940\u092f
p231
F0.00076452599388379206
sV\u091a\u092a\u094d\u092a\u0932
p232
F0.0016570008285004142
sV\u095e\u094d\u0932\u0949\u0907\u0921
p233
F0.00082850041425020708
sV\u092d\u093e\u0935\u0928\u093e\u0924\u094d\u092e\u0915
p234
F0.00076452599388379206
sV\u0905\u0902\u0927\u0915\u093e\u0930
p235
F1.0836785418392709
sV\u092a\u094d\u0930\u093e\u092a\u094d\u0924\u0915\u0930\u094d\u0924\u093e
p236
F0.00082850041425020708
sV\u0935\u093f\u091c\u094d\u091e\u093e\u092a\u093f\u0924
p237
F1.2303771661569827
sV\u092a\u0940\u095c\u093f\u0924\u094b\u0902
p238
F0.00082850041425020708
sV\u091f\u093f\u095e\u0928\u0940
p239
F0.00082850041425020708
sV\u0936\u091f\u0932
p240
F0.00076452599388379206
sV\u0905\u0924\u093f\u0930\u093f\u0915\u094d\u0924
p241
F0.00082850041425020708
sV\u092c\u091a\u0947\u0902
p242
F0.00076452599388379206
sV\u092c\u0947\u091f\u093e
p243
F0.0074565037282518639
sV\u0909\u095c\u093e\u0928\u094b\u0902
p244
F0.00082850041425020708
sV\u091b\u092e\u093e\u0939\u0940
p245
F0.00076452599388379206
sV\u0915\u094d\u092f\u094b\u0902\u0915\u093f
p246
F0.0061162079510703364
sV\u0936\u093f\u0915\u093e\u092f\u0924
p247
F0.00076452599388379206
sV\u0909\u0928\u092e\u0947
p248
F4.3347141673570837
sV\u0939\u0930\u093e
p249
F0.0016570008285004142
sV\u0930\u094b\u092c\u094b\u091f
p250
F0.00082850041425020708
sV\u092a\u0924\u0932\u0940
p251
F0.00076452599388379206
sV\u090f\u0932\u094d\u092c\u092e
p252
F1.3841743119266057
sV\u0926\u094b\u0938\u094d\u0924
p253
F1.0836785418392709
sV\u092e\u094b\u0907\u0938\u094d\u0924\u0941\u0930\u093f\u095b\u0930
p254
F0.00082850041425020708
sV\u092a\u094d\u0930\u0932\u093e\u092a
p255
F0.00076452599388379206
sV\u092a\u094d\u0930\u0938\u094d\u0924\u0941\u0924
p256
F0.00082850041425020708
sV\u0917\u0924\u094d\u0924\u0947
p257
F0.00076452599388379206
sV\u091c\u093e\u0924\u0940
p258
F0.00076452599388379206
sV\u092a\u094b\u0924\u093e
p259
F0.00082850041425020708
sV\u091c\u093e\u0924\u0947
p260
F0.00076452599388379206
sV\u0938\u0902\u0917\u0940\u0924\u0915\u093e\u0930\u094b\u0902
p261
F0.00076452599388379206
sV\u0938\u0902\u0935\u0947\u0926\u0928\u0936\u0940\u0932\u0924\u093e
p262
F0.00076452599388379206
sV\u092e\u093e\u0938\u093f\u0915
p263
F0.00082850041425020708
sV\u0915\u093f\u0938\u0940
p264
F1.3004142502071252
sV\u0936\u0915\u094d\u0924\u093f
p265
F0.00082850041425020708
sV\u0928\u0940\u0902\u092c\u0942
p266
F1.0836785418392709
sV\u0907\u0928\u0940\u0936\u093f\u092f\u0932\u094d\u0938
p267
F0.00082850041425020708
sV\u0905\u0924\u093f\u092e\u093e\u0928\u0935
p268
F0.00082850041425020708
sV\u0905\u092e\u0947\u0930\u093f\u0915\u0940
p269
F1.8455657492354742
sV\u0905\u092e\u0947\u0930\u093f\u0915\u093e
p270
F0.00082850041425020708
sV\u0938\u0942\u0916\u093e\u092a\u0928
p271
F0.00082850041425020708
sV\u091f\u093f\u092e
p272
F1.0836785418392709
sV12
p273
F0.00076452599388379206
sV\u0930\u0939\u0947\u0902\u0917\u0947
p274
F0.00082850041425020708
sV\u090f\u0915\u094d\u0938\u091a\u0947\u0902\u091c\u094b\u0902
p275
F0.00076452599388379206
sV\u0909\u0932\u091d\u093e\u0928\u0947
p276
F0.00076452599388379206
sV\u0936\u093f\u0936\u0941
p277
F0.00082850041425020708
sV\u0924\u094b\u095c
p278
F0.00076452599388379206
sV16
p279
F0.00076452599388379206
sV\u092c\u0921\u093c\u0940
p280
F0.00076452599388379206
sV\u090f\u0928\u092c\u0940\u090f
p281
F0.00076452599388379206
sV\u092a\u094b\u0924\u0947
p282
F0.00082850041425020708
sV\u0925\u093e
p283
F1.4854553591407476
sV\u091c\u093e\u0924\u093e
p284
F1.2303771661569827
sV\u092e\u094c\u0924
p285
F0.00076452599388379206
sV\u0916\u0930\u093e\u092c\u0940
p286
F0.00076452599388379206
sV\u092a\u093e\u0938
p287
F0.0024855012427506215
sV\u0926\u094b\u0939\u0930\u093e\u0928\u093e
p288
F0.00076452599388379206
sV\u0936\u093e\u092e\u093f\u0932
p289
F3.6911314984709485
sV\u091c\u093e\u0928\u0924\u093e
p290
F0.00082850041425020708
sV\u0906\u091c
p291
F2.1673570836785419
sV\u092b\u093f\u0932\u093f\u092a\u094d\u0938
p292
F0.00076452599388379206
sV\u0935\u093f\u0924\u0930\u0923
p293
F0.00082850041425020708
sV\u091c\u0939\u093e\u0901
p294
F0.00076452599388379206
sV\u0906\u0908
p295
F0.00082850041425020708
sV00
p296
F0.00082850041425020708
sV\u0906\u0920
p297
F0.00082850041425020708
sV\u0935\u093f\u0938\u094d\u091f\u093e
p298
F0.00076452599388379206
sV\u0906\u092a
p299
F1.2688264525993884
sV\u0906\u092e
p300
F0.0015290519877675841
sV\u0935\u0930\u094d\u0937\u0940\u092f
p301
F0.00082850041425020708
sV\u0917\u0932\u0924\u0940
p302
F0.0022935779816513763
sV\u091c\u0947\u0932
p303
F0.00082850041425020708
sV\u0915\u0902\u092a\u094d\u092f\u0942\u091f\u0930
p304
F1.6255178127589065
sV\u091c\u0947\u0928
p305
F0.00076452599388379206
sV\u091c\u0947\u092c
p306
F0.00082850041425020708
sV\u092c\u094d\u0930\u0940\u0932\u093f\u090f\u0902\u0938
p307
F0.00082850041425020708
sV\u0905\u0938\u092e\u0930\u094d\u0925
p308
F3.6911314984709485
sV\u092a\u094d\u0930\u0938\u094d\u0924\u0941\u0924\u093f
p309
F0.00082850041425020708
sV\u092a\u094d\u0930\u091a\u093e\u0930
p310
F1.0836785418392709
sV\u0917\u094d\u0930\u093f\u0932
p311
F0.0016570008285004142
sV\u092a\u094d\u0930\u0915\u094d\u0930\u093f\u092f\u093e
p312
F3.251035625517813
sV\u0935\u095b\u0928
p313
F0.00076452599388379206
sV\u092c\u093f\u091f
p314
F0.00076452599388379206
sV\u091c\u0947\u0915
p315
F0.00076452599388379206
sV\u092a\u0939\u0947\u0932\u093e
p316
F0.00082850041425020708
sV\u092a\u093e\u0932\u0928
p317
F0.00082850041425020708
sV\u0915\u0932\u094d\u092a\u0928\u093e
p318
F1.8455657492354742
sV\u091f\u0915\u0938\u093e\u0932
p319
F0.00082850041425020708
sV\u0938\u093e\u0926\u093e
p320
F0.00076452599388379206
sV\u0935\u094d\u092f\u0915\u094d\u0924\u093f
p321
F2.1673570836785419
sV\u0935\u0940\u0902
p322
F0.00076452599388379206
sV\u0935\u093f\u0936\u094d\u0935\u093e\u0938
p323
F0.00076452599388379206
sV\u092c\u091a\u0947
p324
F0.00076452599388379206
sV\u0915\u0902\u0921\u0940\u0936\u0928\u0930
p325
F0.00082850041425020708
sV\u091f\u0947\u092a
p326
F0.00076452599388379206
sV\u0939\u0948\u0902
p327
F1.0765800203873599
sV\u092e\u0924
p328
F0.0076452599388379203
sV\u092e\u0926
p329
F0.0015290519877675841
sV\u0926\u0941\u0930\u094d\u092d\u093e\u0917\u094d\u092f
p330
F0.0015290519877675841
sV\u092c\u0928\u093e
p331
F1.6255178127589065
sV\u092e\u0939\u093f\u0932\u093e\u0913\u0902
p332
F0.00082850041425020708
sV\u092e\u0948
p333
F0.00082850041425020708
sV\u0932\u094b\u0917
p334
F1.8455657492354742
sV\u092c\u0948\u091f\u0930\u093f\u092f\u094b\u0902
p335
F0.00076452599388379206
sV\u091a\u093e\u0939\u093f\u090f
p336
F1.0836785418392709
sV\u092e\u093e\u0902\u0917
p337
F0.00082850041425020708
sV\u0932\u092e\u094d\u092c\u0947
p338
F0.00082850041425020708
sV\u092b\u0940\u0924\u093e
p339
F0.00076452599388379206
sV\u0938\u0902\u0917\u0940\u0924
p340
F1.8455657492354742
sV\u0917\u0926\u094d\u0926\u0947\u0926\u093e\u0930
p341
F0.0016570008285004142
sV\u0910\u0938\u0947
p342
F0.00076452599388379206
sV\u0916\u0947\u0932\u0928\u0947
p343
F2.7683486238532113
sV\u0916\u0940\u091a\u0924\u093e
p344
F0.00076452599388379206
sV\u0917\u0939\u0928\u093e
p345
F0.00076452599388379206
sV\u0938\u094d\u0935\u0940\u091f
p346
F0.00082850041425020708
sV\u0935-170
p347
F0.00076452599388379206
sV\u0939\u0942\u0921\u093f
p348
F0.00076452599388379206
sV\u092b\u093e\u0935\u095c\u093e
p349
F0.00082850041425020708
sV\u0926\u0941\u0935\u093f\u0927\u093e
p350
F0.00076452599388379206
sV\u0930\u094b\u092e\u093e\u0902\u091a\u0915
p351
F0.00076452599388379206
sV\u0928\u0939\u0940\u0902:
p352
F0.00076452599388379206
sV\u092c\u091a\u0924
p353
F0.00082850041425020708
sV\u0905\u0902\u0924
p354
F0.00076452599388379206
sV\u092c\u0947\u091f\u0947
p355
F0.0049710024855012429
sV\u091f\u0949\u092f\u0932\u0947\u091f
p356
F0.00076452599388379206
sV\u092c\u0947\u091f\u0940
p357
F5.4183927091963549
sV\u0915\u0949\u092e
p358
F0.00076452599388379206
sV\u0915\u0949\u0932
p359
F0.00076452599388379206
sV\u0917\u0948\u0930
p360
F1.0836785418392709
sV\u0913\u0930\u094d\u092c\u091a
p361
F0.00076452599388379206
sV\u0915\u0949\u092e\u0947\u0921\u0940
p362
F2.7091963545981774
sV\u0935\u094d\u092f\u0915\u094d\u0924\u093f\u0917\u0924
p363
F0.00082850041425020708
sV\u0928\u093f\u0937\u094d\u092a\u0915\u094d\u0937
p364
F0.00076452599388379206
sV\u0915\u094b\u0936\u093f\u0936
p365
F0.0053516819571865441
sV\u092c\u093e\u0915\u0940
p366
F0.00082850041425020708
sV\u0930\u0902\u0917\u094b\u0902
p367
F0.00082850041425020708
sV\u0935\u093f\u0928\u093e\u0936
p368
F0.00076452599388379206
sV\u091a\u0932\u0928\u0940
p369
F0.00082850041425020708
sV\u091a\u0932\u0928\u0947
p370
F0.0024855012427506215
sV\u0935\u093f\u0915\u093e\u0938
p371
F0.00076452599388379206
sV\u0930\u0942\u092a
p372
F1.3386617281543935
sV\u0905\u0935\u094d\u092f\u0935\u0938\u094d\u0925\u093e
p373
F0.00076452599388379206
sV\u0916\u0947\u0926
p374
F0.00082850041425020708
sV\u092a\u0938\u0902\u0926
p375
F11.920463960231979
sV\u0936\u093e\u0928\u0926\u093e\u0930
p376
F14.087821043910521
sV\u0928\u0940\u0930\u0938
p377
F0.00076452599388379206
sV\u095e\u0942\u091c\u0940
p378
F0.00076452599388379206
sV\u092c\u0915\u0935\u093e\u0938
p379
F0.00076452599388379206
sV\u092c\u094b\u091d\u093f\u0932
p380
F0.00076452599388379206
sV\u0916\u0947\u0932
p381
F2.4382767191383596
sV\u0915\u094d\u0932\u0940\u0928\u093f\u0915\u094d\u0915
p382
F0.00082850041425020708
sV\u092a\u094d\u0930\u0924\u094d\u092f\u0915\u094d\u0937
p383
F0.00076452599388379206
sV\u091f\u0942\u091f\u0940
p384
F0.00076452599388379206
sV\u0928\u093f\u0935\u093f\u095c
p385
F1.0836785418392709
sV\u0928\u0915\u094d\u0937\u0924\u094d\u0930\u092f\u0941\u0926\u094d\u0927
p386
F0.00082850041425020708
sV\u0915\u0930\u0928\u0940
p387
F0.0015290519877675841
sV\u0915\u0930\u0928\u0947
p388
F1.596999956394715
sV\u0932\u094b\u0930\u094d\u0930\u0940
p389
F0.00076452599388379206
sV\u0924\u0947\u091c\u0940
p390
F1.0836785418392709
sV\u092e\u093e\u092e\u0932\u0947
p391
F0.0015290519877675841
sV\u092c\u093e\u0939\u0930\u0940
p392
F0.0015290519877675841
sV\u0938\u094d\u091f\u0949\u0915
p393
F1.0836785418392709
sV\u0915\u094b\u091a
p394
F0.00076452599388379206
sV\u0926\u094b\u0937\u092a\u0942\u0930\u094d\u0923
p395
F0.0022935779816513763
sV\u092a\u094d\u0930\u094b\u0917\u094d\u0930\u093e\u092e
p396
F0.0016570008285004142
sV\u092d\u0940\u0924\u0930
p397
F0.0015290519877675841
sV\u0938\u094d\u0925\u093e\u092f\u0940
p398
F0.00076452599388379206
sV\u0909\u0924\u094d\u092a\u093e\u0926\u0928
p399
F0.0016570008285004142
sV\u0936\u093e\u0902\u0917\u094d\u0930\u0940
p400
F0.00082850041425020708
sV\u092a\u0947\u092a\u0930
p401
F0.00076452599388379206
sV\u092e\u0941\u0915\u0926\u092e\u093e
p402
F0.00076452599388379206
sV\u092a\u094d\u0930\u0927\u093e\u0928\u092e\u0902\u0924\u094d\u0930\u0940
p403
F0.00082850041425020708
sV\u092c\u093e\u0907\u0915\u0930
p404
F0.00082850041425020708
sV\u092a\u0940\u091b\u0947
p405
F0.00082850041425020708
sV\u0906\u092a\u0928\u0947
p406
F0.00076452599388379206
sV\u092c\u0941\u0932\u092c\u0941\u0932\u0947
p407
F0.00076452599388379206
sV\u0906\u0926\u092e\u0940
p408
F1.0836785418392709
sV\u0938\u094d\u0915\u094d\u0930\u0940\u0928
p409
F0.0022935779816513763
sV\u0939\u093f\u0902\u0938\u0915
p410
F0.00076452599388379206
sV30
p411
F0.00076452599388379206
sV\u0935\u0938\u094d\u0924\u0941
p412
F0.00082850041425020708
sV\u0915\u0930\u0942\u0901\u0917\u093e
p413
F2.1673570836785419
sV\u0905\u0935\u093e\u0938\u094d\u0924\u0935\u093f\u0915
p414
F0.00076452599388379206
sV\u0932\u093f\u092a\u094d\u0938\u094d\u0924\u093f\u091a\u094d\u0915
p415
F0.00082850041425020708
sV\u0925\u0947
p416
F1.3841743119266057
sV\u0925\u0940
p417
F1.6255178127589065
sV\u0915\u0940
p418
F1.1864351245085192
sV\u0935\u093e\u0932\u0947
p419
F2.1673570836785419
sV\u0905\u0935\u093f\u0938\u094d\u092e\u0930\u0923\u0940\u092f
p420
F0.00082850041425020708
sV\u0915\u0930\u0928\u093e
p421
F2.7683486238532109
sV\u0935\u093e\u0932\u0940
p422
F0.0024855012427506215
sV\u0920\u094b\u0938
p423
F1.0836785418392709
sV\u092f\u0941\u0926\u094d\u0927\u092a\u094b\u091f
p424
F0.00082850041425020708
sV\u0938\u094d\u091f\u093e\u0930
p425
F0.00082850041425020708
sV\u0930\u0916
p426
F0.00082850041425020708
sV\u0909\u0928\u094d\u0939\u094b\u0902\u0928\u0947
p427
F0.00082850041425020708
sV\u0905\u0924\u094d\u092f\u0902\u0924
p428
F1.8455657492354742
sV\u0909\u0920\u093e
p429
F0.00082850041425020708
sV50
p430
F0.00076452599388379206
sV\u092e\u0928\u094b\u0930\u0902\u091c\u0928
p431
F0.0016570008285004142
sV\u091a\u093f\u0915\u0928\u093e
p432
F0.0016570008285004142
sV\u0908\u0938\u093e\u0908
p433
F0.00076452599388379206
sV\u0924\u0947\u091c\u093c
p434
F0.00082850041425020708
sV\u0935\u094d\u0939\u093f\u0928\u0947\u092b\u0947\u0938\u094d\u091f
p435
F0.00076452599388379206
sV\u092a\u094d\u0930\u0924\u094d\u092f\u0941\u0924\u094d\u0924\u0930
p436
F0.00076452599388379206
sV\u092e\u0928\u094b\u0930\u0902\u091c\u0915
p437
F0.0033140016570008283
sV\u092c\u0930\u094d\u092c\u093e\u0926\u0940
p438
F0.0061162079510703364
sV\u0930\u0939
p439
F0.00082850041425020708
sV/
F1.8455657492354742
sV\u092c\u095c\u093e
p440
F1.444904722452361
sV\u0907\u0938\u0947
p441
F1.0836785418392709
sV\u0927\u0930\u0924\u0940
p442
F0.00082850041425020708
sV\u092c\u095c\u0940
p443
F0.0038226299694189602
sV\u092c\u095c\u0947
p444
F2.7683486238532113
sV\u092f\u0939\u093e\u0901
p445
F2.3069571865443428
sV\u0938\u094d\u0925\u093f\u0930
p446
F0.00076452599388379206
sV\u0928\u0938\u094d\u0932\u094b\u0902
p447
F0.00082850041425020708
sV\u091c\u094b\u095c\u0928\u093e
p448
F0.00076452599388379206
sV\u0938\u092e\u0938\u094d\u092f\u093e\u0913\u0902
p449
F2.1673570836785419
sV\u0916\u0930\u0940\u0926
p450
F1.8964374482187243
sV\u0938\u0941\u0928
p451
F0.00076452599388379206
sV\u092c\u0924\u093e\u092f\u093e
p452
F1.0836785418392709
sV\u091a\u093f\u0915\u0928\u0940
p453
F0.0016570008285004142
sV\u0917\u0902\u0926\u0917\u0940
p454
F0.0015290519877675841
sV\u092d\u0942\u0932
p455
F0.00076452599388379206
sV\u0909\u0924\u094d\u0924\u092e
p456
F0.0016570008285004142
sV\u0938\u0930\u094d\u0935\u0936\u094d\u0930\u0947\u0937\u094d\u0920
p457
F0.0024855012427506215
sV\u092b\u0941\u091f\u092c\u0949\u0932
p458
F0.0024855012427506215
sV\u0916\u0930\u0940\u0926\u093e\u0930\u0940
p459
F0.0016570008285004142
sV\u092c\u0948\u091f\u0930\u0940
p460
F11.073394495412845
sV\u0932\u0902\u092c\u093e
p461
F1.0836785418392709
sV\u092c\u0928\u093e\u0935\u091f
p462
F0.00082850041425020708
sV\u092e\u093f\u0932\u0928\u0947
p463
F0.00076452599388379206
sV\u092a\u093e\u0924\u093e
p464
F0.00076452599388379206
sV\u0930\u0902\u0917\u0913\u0902
p465
F0.00082850041425020708
sV\u0916\u0930\u0940\u0926\u0942\u0902\u0917\u093e
p466
F0.0016570008285004142
sV\u092a\u0930\u0940\u0915\u094d\u0937\u0923
p467
F0.0016570008285004142
sV\u0938\u091c\u093e\u0935\u091f
p468
F0.00076452599388379206
sV\u0924\u094b
p469
F1.1534785932721714
sV\u0938\u0902\u0916\u094d\u092f\u093e
p470
F0.00076452599388379206
sV\u0921\u093f\u0938\u094d\u092a\u094b\u091c\u0947\u092c\u0932
p471
F0.00076452599388379206
sV\u0906\u0915\u093e\u0930
p472
F1.444904722452361
sV\u0905\u092d\u093f\u0917\u092e\u0928
p473
F0.00082850041425020708
sV\u0924\u093e\u0930
p474
F0.00076452599388379206
sV\u0936\u094b\u0930
p475
F0.00076452599388379206
sV\u091a\u093f\u092a\u0915\u0928\u0947
p476
F0.00076452599388379206
sV\u092c\u093e\u0924\u0947\u0902
p477
F0.0016570008285004142
sV\u092c\u0915\u0930\u0940
p478
F0.00076452599388379206
sV\u0906\u0930\u093e\u092e\u0926\u0947\u0939
p479
F0.0016570008285004142
sV\u092a\u0939\u0941\u0902\u091a\u0947
p480
F0.00076452599388379206
sV\u0935\u093f\u0937\u092f
p481
F0.00076452599388379206
sV\u092b\u093e\u0907\u091f\u0930
p482
F0.00082850041425020708
sV\u0917\u0902\u0927
p483
F0.0015290519877675841
sV\u0932\u0902\u092c\u0947
p484
F3.251035625517813
sV\u0932\u0902\u092c\u0940
p485
F1.0836785418392709
sV\u091b\u094b\u0921\u093c
p486
F0.00082850041425020708
sV\u092e\u093f\u0932\u0928\u093e
p487
F0.00076452599388379206
sV\u092a\u094d\u0930\u092f\u093e\u0938
p488
F0.0015290519877675841
sV\u0924\u0915
p489
F1.192046396023198
sV\u0938\u093e\u0909\u0902\u0921\u091f\u094d\u0930\u0948\u0915
p490
F0.00082850041425020708
sV\u0938\u0902\u0924\u0941\u0937\u094d
p491
F0.00082850041425020708
sV\u090a\u091f\u092a\u091f\u093e\u0902\u0917
p492
F0.0015290519877675841
sV\u0938\u0948\u092e
p493
F0.00082850041425020708
sV\u0926\u093e\u0902\u0924
p494
F0.00076452599388379206
sV\u0905\u092b\u0938\u094b\u0938
p495
F0.00082850041425020708
sV\u091a\u095d\u093e\u0908
p496
F0.00082850041425020708
sV\u095b\u0940\u0930\u0915\u094d\u0938\u093e
p497
F0.00082850041425020708
sV\u0916\u093f\u0932\u094c\u0928\u0947
p498
F1.8455657492354742
sV\u0916\u0930\u094d\u091a\u0947
p499
F0.00076452599388379206
sV\u091a\u095d\u093e\u0935
p500
F0.00082850041425020708
sV\u0915\u091f\u094d\u091f\u0930\u092a\u0902\u0925\u0940
p501
F0.00082850041425020708
sV\u092e\u093e\u0924\u093e\u0913\u0902
p502
F0.00082850041425020708
sV\u0935\u093f\u0938\u094d\u0924\u093e\u0930
p503
F0.00082850041425020708
sV\u0928\u0930\u092e
p504
F4.3347141673570837
sV\u0928\u094b\u0915\u093f\u092f\u093e
p505
F0.00076452599388379206
sV\u0917\u093e\u0909\u0928
p506
F0.00076452599388379206
sV\u0916\u0941\u0926\u0930\u093e
p507
F0.00076452599388379206
sV\u092c\u093e\u091c\u093e\u0930
p508
F0.00082850041425020708
sV\u0916\u093f\u0932\u094c\u0928\u093e
p509
F8.6694283347141674
sV\u092a\u0915\u095c
p510
F1.0836785418392709
sV\u0907\u0928\u092e\u0947\u0902
p511
F0.00076452599388379206
sV\u0924\u0928\u093e
p512
F0.00082850041425020708
sV\u092c\u094d\u0930\u0936
p513
F0.00082850041425020708
sV\u092c\u094d\u0930\u093e
p514
F0.0033140016570008283
sV\u0906\u0938\u093e\u0928\u0940
p515
F1.0836785418392709
sV\u092a\u0939\u0928\u0924\u093e
p516
F2.1673570836785419
sV\u092e\u0942\u0930\u094d\u0916
p517
F0.0015290519877675841
sV\u0935\u0947\u092c\u0930
p518
F0.00082850041425020708
sV\u0926\u0947\u0916\u093f
p519
F0.00076452599388379206
sV\u0926\u0947\u0916\u093e
p520
F1.2303771661569827
sV\u091f\u093e\u092f\u0930
p521
F0.0016570008285004142
sV\u092c\u0947\u0939\u0924\u0930
p522
F1.5171499585749795
sV\u0938\u092d\u094d\u092f
p523
F0.00082850041425020708
sV\u0930\u0916\u093e
p524
F1.0836785418392709
sV0
F0.00082850041425020708
sV\u0915\u093e\u092e\u0928\u093e
p525
F0.00076452599388379206
sV\u0938\u094d\u0935\u0947\u091f\u0930
p526
F0.00076452599388379206
sV\u0938\u094d\u0935\u093f\u091a\u0928
p527
F0.00082850041425020708
sV\u0928\u093f\u0930\u093e\u0936
p528
F0.0061162079510703364
sV\u0932\u0917\u0924\u0940
p529
F0.00076452599388379206
sV\u0930\u0902\u0917\u0940\u0928
p530
F0.0016570008285004142
sV\u0915\u0948\u092e\u0930\u093e
p531
F1.8455657492354742
sV\u0938\u094d\u0915\u093e\u0930\u094d\u092b
p532
F0.00076452599388379206
sV\u0917\u0902\u092d\u0940\u0930
p533
F0.0022935779816513763
sV\u090f\u0915\u093e\u0909\u0902\u091f\u0947\u0902\u091f
p534
F0.00082850041425020708
sV\u0930\u0916\u0947
p535
F0.00082850041425020708
sV\u092a\u093e\u0902\u091a
p536
F0.00082850041425020708
sV\u0935\u093e\u0939
p537
F1.8455657492354742
sV\u091d\u0942\u0920\u0947
p538
F0.00076452599388379206
sV\u0926\u0947\u0916\u0940
p539
F1.0836785418392709
sV\u0930\u094b\u0932
p540
F0.00076452599388379206
sV\u092c\u094d\u0932\u0947\u0915
p541
F0.00076452599388379206
sV\u092c\u0949\u0915\u094d\u0938
p542
F0.00076452599388379206
sV\u0915\u0932\u093e\u0915\u0943\u0924\u093f
p543
F0.00082850041425020708
sV\u0930\u094b\u0925
p544
F0.00082850041425020708
sV\u092a\u093e\u0930\u094d\u0915
p545
F0.00076452599388379206
sV\u092a\u094d\u0930\u0947\u092e\u0940
p546
F0.00082850041425020708
sV\u0924\u0939\u0924
p547
F1.0836785418392709
sV\u0915\u0941\u0936\u0932
p548
F0.00082850041425020708
sV\u0915\u095c\u093e
p549
F0.00076452599388379206
sV\u0935\u093e\u0938\u094d\u0924\u0935\u093f\u0915\u0924\u093e
p550
F0.00076452599388379206
sV\u0935\u094d\u092f\u0930\u094d\u0925
p551
F0.0038226299694189602
sV\u0915\u093e\u0930\u094d\u0921
p552
F3.251035625517813
sV\u0935\u0948\u0917\u0928
p553
F0.0024855012427506215
sV\u0917\u093f\u0930
p554
F0.00076452599388379206
sV\u0921\u0940-50
p555
F0.00076452599388379206
sV\u091b\u0932
p556
F0.00076452599388379206
sV\u0926\u093f\u092f\u093e
p557
F3.1374617737003057
sV\u0928\u093f\u0915\u0932\u093e
p558
F0.00082850041425020708
sV\u091c\u094d\u091e\u093e\u0928
p559
F0.00082850041425020708
sV\u0916\u0942\u092c
p560
F0.00082850041425020708
sV\u0926\u0940\u0935\u093e\u0930
p561
F0.00082850041425020708
sV\u091a\u092e\u0915
p562
F0.00082850041425020708
sV\u0935\u093f\u091c\u094d\u091e\u093e\u092a\u0928
p563
F0.00076452599388379206
sV\u0907\u0938\u0938\u0947
p564
F6.502071251035626
sV\u091a\u093e\u0915\u0942
p565
F0.00082850041425020708
sV\u091b\u0942
p566
F0.00082850041425020708
sV\u0932\u0921\u093c\u0915\u0947
p567
F0.00076452599388379206
sV\u091c\u093e\u092f\u0947\u0917\u093e
p568
F0.00076452599388379206
sV\u092a\u094b\u0930\u094d\u091f
p569
F0.00076452599388379206
sV\u0926\u093f\u092f\u0947
p570
F0.00076452599388379206
sV\u0909\u0938
p571
F1.8455657492354742
sV\u0935-173
p572
F0.00076452599388379206
sV\u0924\u0932\u093e\u0936
p573
F0.00076452599388379206
sV\u0915\u095c\u0940
p574
F0.0015290519877675841
sV\u092e\u094b\u095b\u0930\u0940
p575
F0.00076452599388379206
sV\u0924\u0940\u0935\u094d\u0930
p576
F0.00082850041425020708
sV\u0938\u0902\u0915\u0941\u091a\u093f\u0924
p577
F0.00076452599388379206
sV\u0909\u0928
p578
F0.0015290519877675841
sV\u0935\u094d\u092f\u0935\u0938\u093e\u092f
p579
F0.00082850041425020708
sV\u0915\u0942\u095c\u0947
p580
F0.00082850041425020708
sV\u092c\u093f\u0932\u094d\u0915\u0941\u0932
p581
F2.3069571865443428
sV\u091c\u093f\u092e
p582
F0.00082850041425020708
sV\u092e\u094b\u091f\u0940
p583
F1.0836785418392709
sV\u092e\u0941\u0915\u094d\u0924
p584
F0.0016570008285004142
sV\u0936\u0930\u094d\u0924\u094b\u0902
p585
F0.00076452599388379206
sV\u0915\u094d\u0937\u0924\u093f\u0917\u094d\u0930\u0938\u094d\u0924
p586
F0.00076452599388379206
sV\u0906\u0930\u093e\u092e
p587
F0.0082850041425020712
sV\u092a\u095c\u0947\u0917\u093e
p588
F0.00082850041425020708
sV\u0932\u0921\u093c\u0915\u093e
p589
F0.00076452599388379206
sV\u092b\u0948\u0936\u0928
p590
F0.00082850041425020708
sV\u092c\u092e\u094d\u092a\u0930
p591
F0.00082850041425020708
sV\u090f\u092e\u090f\u0938
p592
F1.0836785418392709
sV\u092b\u094b\u0915\u0938
p593
F0.00076452599388379206
sV\u092e\u093f\u0932\u093e\u0928\u093e
p594
F0.00076452599388379206
sV\u092c\u0947\u0932
p595
F0.00076452599388379206
sV\u092c\u0947\u0930
p596
F0.00082850041425020708
sV\u0926\u094d\u0935\u093e\u0930\u093e
p597
F1.3841743119266057
sV\u092e\u0942\u0935\u0940
p598
F1.0836785418392709
sV846i
p599
F0.00076452599388379206
sV\u0915\u094d\u092f\u093e
p600
F1.444904722452361
sV\u0915\u0939\u0928\u093e
p601
F1.0836785418392709
sV\u092a\u095c\u0947\u0917\u0940
p602
F0.00076452599388379206
sV\u0906\u0902\u0915\u095c\u0947
p603
F0.00082850041425020708
sV\u0938\u0902\u0938\u094d\u0915\u0930\u0923
p604
F1.845565749235474
sV\u0915\u095c\u0935\u0940
p605
F0.00076452599388379206
sV\u0936\u093e\u0932
p606
F0.00082850041425020708
sV\u0915\u091f\u094b\u0930\u093e
p607
F1.0836785418392709
sV\u092e\u094b\u091f\u093e
p608
F1.0836785418392709
sV\u0926\u0943\u0936\u094d\u092f\u094b\u0902
p609
F0.00076452599388379206
sV\u090f\u0915
p610
F1.0449757367735826
sV\u091a\u0940\u095b\u0947\u0902
p611
F0.00082850041425020708
sV\u092a\u094d\u0930\u093e\u092a\u094d\u0924
p612
F1.0836785418392709
sV\u0938\u0902\u0917\u094d\u0930\u0939
p613
F2.1673570836785419
sV\u0915\u0932\u092e
p614
F0.0015290519877675841
sV\u0938\u092d\u0940
p615
F2.889809444904722
sV\u092c\u092f\u093e\u0928
p616
F0.00076452599388379206
sV\u0905\u0916\u092c\u093e\u0930
p617
F0.00076452599388379206
sV\u091f\u094b\u0915\u0930\u0940
p618
F0.00076452599388379206
sV\u091c\u0932\u094d\u0926
p619
F0.00082850041425020708
sV\u092a\u095c
p620
F0.00082850041425020708
sV\u092a\u095d
p621
F0.00076452599388379206
sV\u0905\u092d\u094d\u092f\u093e\u0938
p622
F0.0024855012427506215
sV\u0938\u0940\u091f
p623
F0.0016570008285004142
sV\u0905\u0932\u094c\u0915\u093f\u0915
p624
F0.00082850041425020708
sV\u0926\u094b\u0938\u094d\u0924\u094b\u0902
p625
F0.00082850041425020708
sV\u0938\u0940\u0916
p626
F0.00082850041425020708
sV\u0926\u094b\u0938\u094d\u0924\u094b\u0901
p627
F0.00082850041425020708
sV1
F0.0015290519877675841
sV\u091a\u0932\u0940
p628
F0.00076452599388379206
sV\u0915\u094c\u0936\u0932
p629
F0.00082850041425020708
sV\u0939\u093f\u0932\u093e\u0928\u0947
p630
F0.00082850041425020708
sV\u0928\u093f\u0930\u092a\u0947\u0915\u094d\u0937
p631
F0.00082850041425020708
sV\u0936\u094b\u0937\u0923
p632
F0.00076452599388379206
sV\u092a\u0930
p633
F1.1455235684909839
sV\u0930\u0938\u094b\u0908
p634
F0.00082850041425020708
sV\u0938\u094d\u092f\u093e\u0939\u0940
p635
F0.00076452599388379206
sV\u0932\u091a\u0940\u0932\u093e
p636
F0.00076452599388379206
sV\u0921\u094b\u0928\u093e\u0932\u094d\u0921
p637
F0.00076452599388379206
sV\u091a\u091f\u093e\u0908
p638
F1.3841743119266057
sV\u0936\u092c\u094d\u0926\u094b\u0902
p639
F0.00076452599388379206
sV\u0917\u094d\u0930\u093e\u092b\u093f\u0915
p640
F0.00082850041425020708
sV\u0921\u093f\u091c\u093e\u0907\u0928
p641
F2.1673570836785419
sV\u0938\u092d\u093e
p642
F0.00076452599388379206
sV\u0918\u094b\u091f\u093e\u0932\u0947
p643
F0.00076452599388379206
sV\u0909\u091a\u094d\u091a
p644
F4.3347141673570837
sV\u092e\u0927\u094d\u092f\u092e
p645
F0.00076452599388379206
sV\u0906\u0938)
p646
F0.00076452599388379206
sV\u0936\u092c\u094d\u0926
p647
F0.00076452599388379206
sV\u0938\u092e\u091d
p648
F2.7683486238532113
sV\u0935\u0940\u092d\u0924\u094d\u0938
p649
F0.00076452599388379206
sV\u0935\u093f\u0930\u094b\u0927
p650
F0.00082850041425020708
sV\u0930\u091a\u0928\u093e
p651
F0.00082850041425020708
sV\u092c\u0930\u094d\u0926\u093e\u0936\u094d\u0924
p652
F0.00076452599388379206
sV(\u091b\u0935\u093f
p653
F0.00076452599388379206
sV\u092a\u094b\u0930\u094d\u091f\u0947\u092c\u0932
p654
F1.8455657492354742
sV\u0917\u0941\u091c\u093e\u0930\u0947\u0902
p655
F0.00082850041425020708
sV\u092a\u094b\u0936\u093e\u0915
p656
F0.00082850041425020708
sV\u0906\u0926\u093f
p657
F0.00082850041425020708
sV\u0928\u093e\u092e
p658
F0.0015290519877675841
sV\u0905\u092a\u0928\u093e
p659
F1.8455657492354742
sV\u0917\u0930\u0940\u092c
p660
F0.012232415902140673
sV\u0928\u093e\u091f\u0915
p661
F0.0016570008285004142
sV\u091f\u093f\u0915\u093e\u090a
p662
F5.4183927091963549
sV\u0938\u092e\u092f
p663
F1.8061309030654513
sV\u0938\u093e\u092e\u093e\u0928\u094d\u092f
p664
F0.0016570008285004142
sV\u0928\u0939\u0940
p665
F0.0099420049710024858
sV\u0938\u0939\u093f\u0924
p666
F1.0836785418392709
sV\u0926\u094c\u0930\u093e\u0928
p667
F0.00082850041425020708
sV\u0905\u092a\u0928\u0940
p668
F2.1673570836785419
sV\u0905\u092a\u0928\u0947
p669
F1.743034318722392
sV\u0915\u093f\u091f
p670
F1.8455657492354742
sV\u0939\u091f\u093e
p671
F1.0836785418392709
sV\u0921\u0947\u091f\u093e
p672
F0.00076452599388379206
sV\u092a\u0939\u0928\u0915\u0947
p673
F0.00076452599388379206
sV\u0915\u094d\u092f\u094b\u0902
p674
F0.0015290519877675841
sV\u091c\u0948\u0930\u0940
p675
F0.00076452599388379206
sV\u0909\u092a\u092f\u094b\u0917\u094d\u092f
p676
F0.00076452599388379206
sV\u0939\u0948\u0930\u093e\u0928
p677
F0.00076452599388379206
sV\u0907\u0938\u092e\u0947\u0902
p678
F2.1673570836785419
sV\u092a\u0940\u091f\u0930\u0938\u0928
p679
F0.00082850041425020708
sV\u0924\u0948\u0930\u0928\u093e
p680
F0.00082850041425020708
sV\u0915\u093e\u0930\u094d\u092f\u093e\u0932\u092f
p681
F0.0016570008285004142
sV\u092e\u093e\u0928\u0924\u093e
p682
F0.00076452599388379206
sV\u0924\u0941\u0930\u0902\u0924
p683
F0.0033140016570008283
sV\u0915\u093f\u0924\u093e\u092c
p684
F0.0030581039755351682
sV\u0935\u093e\u0939\u0928
p685
F0.00076452599388379206
sV\u092a\u094d\u0930\u0938\u093e\u0930\u0923
p686
F0.00082850041425020708
sV\u0938\u0902\u092a\u0930\u094d\u0915
p687
F0.00076452599388379206
sV\u092b\u094d\u0932\u0948\u0936
p688
F0.00076452599388379206
sV\u0938\u0942\u0930\u091c
p689
F0.00076452599388379206
sV\u092a\u094d\u0932\u0947\u0917
p690
F0.00076452599388379206
sV\u091f\u0941\u0915\u0921\u093c\u093e
p691
F0.00076452599388379206
sV\u0938\u0902\u0926\u0930\u094d\u092d
p692
F0.00082850041425020708
sV\u0909\u0924\u0928\u093e
p693
F0.00082850041425020708
sV\u0938\u0930\u094d\u0935\u094b\u0924\u094d\u0924\u092e
p694
F0.00076452599388379206
sV\u092a\u094d\u0930\u0926\u093e\u0928
p695
F0.0016570008285004142
sV\u092a\u0936\u094d\u091a\u093f\u092e
p696
F0.0015290519877675841
sV\u092c\u094d\u0930\u093e\u0902\u0921
p697
F0.00082850041425020708
sV\u092a\u0949\u0932\u093f\u0936
p698
F0.00082850041425020708
sV\u0913\u0930\u0947\u0917\u0928
p699
F0.00076452599388379206
sV\u0917\u093e\u0917
p700
F0.00082850041425020708
sV\u0938\u0941\u0930\u0915\u094d\u0937\u093f\u0924
p701
F0.0024855012427506215
sV8500
p702
F0.00076452599388379206
sV\u092a\u094d\u0930\u0915\u0943\u0924\u093f
p703
F0.00082850041425020708
sV\u092c\u0941\u0926\u094d\u0927\u093f\u092e\u093e\u0928
p704
F0.00082850041425020708
sV\u092a\u094d\u0930\u092c\u0902\u0927\u093f\u0924
p705
F0.00082850041425020708
sV\u0930\u0938\u093e\u092f\u0928
p706
F0.00082850041425020708
sV\u0932\u094b\u0915\u092a\u094d\u0930\u093f\u092f
p707
F0.00082850041425020708
sV\u0938\u0939\u0928\u0936\u0915\u094d\u0924\u093f
p708
F0.00082850041425020708
sV\u092e\u094b\u0921
p709
F0.00082850041425020708
sV\u0935\u094d\u092f\u0941\u0924\u094d\u092a\u0928\u094d\u0928
p710
F0.00076452599388379206
sV\u0927\u0930\u094d\u092e
p711
F0.00076452599388379206
sV\u092a\u094b\u0938\u094d\u091f
p712
F0.00076452599388379206
sV2
F3.6911314984709485
sV\u0917\u0930\u094d\u092e\u093f\u092f\u094b\u0902
p713
F0.0024855012427506215
sV\u0906\u0935\u0936\u094d\u092f\u0915
p714
F0.0016570008285004142
sV\u0924\u0915\u093f\u092f\u093e
p715
F0.0038226299694189602
sV\u091a\u092e\u0924\u094d\u0915\u093e\u0930
p716
F0.00082850041425020708
sV\u0939\u093e\u0938\u094d\u092f\u093e\u0938\u094d\u092a\u0926
p717
F0.0024855012427506215
sV\u0927\u093e\u0924\u0941
p718
F0.0016570008285004142
sV\u0939\u092b\u094d\u0924\u0947
p719
F0.00082850041425020708
sV\u0926\u093f\u0916\u093e\u092f\u093e
p720
F0.00076452599388379206
sV\u0935\u0930\u094d\u0937\u094b\u0902
p721
F0.0024855012427506215
sV\u0932\u093f\u0916\u0928\u0947
p722
F0.00076452599388379206
sV\u092c\u0940\u091a
p723
F0.0015290519877675841
sV\u091a\u093f\u0924\u094d\u0930\u093f\u0924
p724
F0.00082850041425020708
sV\u0932\u093f\u092a\u0938\u094d\u091f\u093f\u0915
p725
F1.0836785418392709
sV\u0905\u092a\u094d\u0930\u093f\u092f
p726
F0.00076452599388379206
sV10
p727
F1.8455657492354742
sV13
p728
F0.00076452599388379206
sV:
F0.0015290519877675841
sV\u0906\u0908\u090f\u0938\u0913
p729
F0.00076452599388379206
sV18
p730
F0.00082850041425020708
sV\u0936\u094b
p731
F0.00076452599388379206
sV\u092c\u0940\u0921
p732
F0.00082850041425020708
sV\u092a\u0949\u0907\u0902\u091f
p733
F0.0015290519877675841
sV\u0916\u0941\u0936\u0940
p734
F0.00076452599388379206
sV\u090f\u092b\u090f\u092e
p735
F0.00076452599388379206
sV3000-\u091f\u0940
p736
F0.00076452599388379206
sV\u0938\u0941\u0921\u094b\u0915\u0942
p737
F0.00076452599388379206
sV\u091f\u092e\u093e\u091f\u0930
p738
F0.00076452599388379206
sV\u0936\u093f\u092a\u094d\u092a\u0947\u0930
p739
F0.00076452599388379206
sV\u091c\u093e\u0928\u0935\u0930\u094b\u0902
p740
F0.0016570008285004142
sV\u0959\u0930\u0940\u0926\u0947
p741
F0.00082850041425020708
sV\u0906\u0915\u0930\u094d\u0937\u0915
p742
F3.251035625517813
sV\u0938\u093f\u0928\u0947\u092e\u093e
p743
F0.0015290519877675841
sV\u0926\u094b\u0939\u0930\u093e\u090f\u0901
p744
F0.00076452599388379206
sV\u092c\u0947\u0932\u094d\u091f
p745
F0.00076452599388379206
sV\u0935\u0948\u0938\u0940
p746
F0.0016570008285004142
sV\u0935\u0948\u0938\u0947
p747
F0.00076452599388379206
sV\u0915\u093e\u091f
p748
F0.00076452599388379206
sV\u0938\u0928\u094d\u0926\u0947\u0936
p749
F0.00082850041425020708
sV\u0938\u0902\u0935\u093e\u0926
p750
F0.00082850041425020708
sV\u092a\u0941\u0928\u0930\u094d\u0935\u0938\u0928
p751
F0.00082850041425020708
sV\u0938\u093f\u092b\u093e\u0930\u093f\u0936
p752
F1.6255178127589065
sV\u0938\u0902\u0938\u093e\u0927\u0928
p753
F0.00082850041425020708
sV\u0938\u0941\u0930
p754
F0.00076452599388379206
sV\u0935\u0948\u0938\u093e
p755
F0.0016570008285004142
sV\u091a\u0940\u095b\u0947
p756
F0.00082850041425020708
sV\u0924\u094d\u0935\u0930\u093f\u0924
p757
F0.00076452599388379206
sV\u091a\u0940\u095b\u094b
p758
F0.00082850041425020708
sV\u0938\u0940\u0927\u0947
p759
F0.0015290519877675841
sV\u0959\u0930\u0940\u0926\u093e
p760
F0.0022935779816513763
sV\u092a\u094d\u0930\u092e\u093e\u0923
p761
F0.00082850041425020708
sV\u092e\u0941\u0938\u094d\u0915\u093e\u0928
p762
F0.00082850041425020708
sV\u0917\u093e\u095c\u0940
p763
F0.00076452599388379206
sV\u092d\u0940
p764
F2.1673570836785419
sV\u0938\u093e\u0935\u0927\u093e\u0928
p765
F6.4594801223241589
sV\u091d\u0902\u091d\u0930\u0940
p766
F0.00076452599388379206
sV\u0936\u0941\u0926\u094d\u0927
p767
F0.00082850041425020708
sV\u0939\u0948:
p768
F0.0030581039755351682
sV\u0939\u0948?
p769
F2.7683486238532113
sV\u0926\u0938\u094d\u0924\u093e\u0935\u0947\u091c\u0940
p770
F0.00082850041425020708
sV\u0938\u094d\u0925\u093f\u0930\u0924\u093e)
p771
F0.00076452599388379206
sV\u0915\u093e\u0930
p772
F1.0836785418392709
sV\u0938\u0942\u091f
p773
F0.0033140016570008283
sV\u092d\u0930\u0928\u0947
p774
F0.00076452599388379206
sV\u092e\u0926\u094b\u0902
p775
F0.00082850041425020708
sV\u092a\u094d\u092f\u093e\u0930\u0947
p776
F0.00082850041425020708
sV\u0924\u0930\u0939
p777
F1.6054496916137346
sV\u0938\u0902\u0915\u0932\u094d\u092a\u0928\u093e
p778
F0.00076452599388379206
sV\u092d\u0947\u091c\u0928\u0947
p779
F0.00082850041425020708
sV\u0915\u093e\u0902\u0917\u094d\u0930\u0947\u0938
p780
F0.0015290519877675841
sV\u0915\u0941\u0902\u0917
p781
F0.00082850041425020708
sV\u092e\u093f\u0932\u093e
p782
F1.0836785418392709
sV\u092e\u093f\u0932\u0940
p783
F0.00076452599388379206
sV\u0926\u0947
p784
F0.00076452599388379206
sV\u092e\u093f\u0932\u093e\u0915\u0930
p785
F0.00082850041425020708
sV\u0939\u094b\u092e
p786
F0.00082850041425020708
sV\u092d\u0947\u091c\u0928\u093e
p787
F0.0015290519877675841
sV\u091b\u094b\u095c
p788
F1.8455657492354742
sV\u0932\u0947\u0928\u0947
p789
F0.00082850041425020708
sV\u092a\u094d\u092f\u093e\u0930\u093e
p790
F0.0033140016570008283
sV\u091a\u0930\u092e
p791
F0.00082850041425020708
sV\u0927\u0941\u0901\u0927\u0932\u0940
p792
F0.00076452599388379206
sV\u0906\u0927\u093e
p793
F3.6911314984709485
sV\u0905\u0917\u0930
p794
F3.251035625517813
sV\u0915\u0930\u094b
p795
F7.3822629969418969
sV\u092a\u0924\u094d\u0928\u0940
p796
F0.0016570008285004142
sV\u0915\u0930\u0947
p797
F0.0015290519877675841
sV\u092b\u093f\u0932\u094d\u092e\u093e\u092f\u093e
p798
F0.0015290519877675841
sV\u092d\u0930
p799
F1.0836785418392709
sV\u092e\u0947\u0939\u0928\u0924
p800
F0.00076452599388379206
sV\u092e\u093f\u0936\u094d\u0930\u093f\u0924
p801
F0.0015290519877675841
sV\u0930\u0916\u0928\u093e
p802
F0.0015290519877675841
sV\u0905\u0928\u0941\u0936\u0902\u0938\u093f\u0924
p803
F0.00076452599388379206
sV\u0938\u093f\u0924\u093e\u0930\u094b\u0902
p804
F0.00076452599388379206
sV\u0915\u092e\u0940\u091c
p805
F0.00076452599388379206
sV\u0936\u093f\u0915\u093e\u092f\u0924\u094b\u0902
p806
F0.00076452599388379206
sV\u0930\u0926\u094d\u0926\u0940
p807
F0.0022935779816513763
sV\u092e\u0941\u0932\u093e\u092f\u092e
p808
F0.00082850041425020708
sV\u0936\u0941\u0930\u0942
p809
F0.0022935779816513763
sV\u092a\u094d\u0932\u0917
p810
F0.00082850041425020708
sV\u091c\u0902\u0915
p811
F0.00076452599388379206
sV\u0917\u0930\u094d\u092e
p812
F5.4183927091963549
sV\u091a\u093e\u0939\u0947\u0902\u0917\u0947
p813
F0.00082850041425020708
sV\u0907\u0924\u093f\u0939\u093e\u0938
p814
F0.00082850041425020708
sV\u0928\u094c\u0935\u0939\u0928
p815
F0.00082850041425020708
sV\u0915\u093e\u092e
p816
F1.5481122026275298
sV\u0926\u0940
p817
F0.0016570008285004142
sV3
F1.444904722452361
sV\u0915\u093e\u0936
p818
F0.00076452599388379206
sV\u0915\u0943\u0924\u091c\u094d\u091e\u0924\u093e
p819
F0.00082850041425020708
sV\u092a\u094d\u0930\u092c\u0902\u0927\u0928
p820
F0.00082850041425020708
sV\u0926\u094b
p821
F8.3050458715596331
sV\u0926\u0930
p822
F1.0836785418392709
sV\u092c\u094d\u0930\u093f\u091f\u093f\u0936
p823
F0.00082850041425020708
sV\u0939\u093e\u0930\u094d\u0921
p824
F0.00082850041425020708
sV\u0938\u0941\u0928\u094b
p825
F0.00076452599388379206
sV\u0915\u092e\u0940\u095b
p826
F0.00082850041425020708
sV\u0909\u0924\u094d\u0915\u0943\u0937\u094d\u091f
p827
F9.2112676056338021
sV\u092a\u0939\u0928\u093e
p828
F0.00076452599388379206
sV\u0928\u093e\u0915\u093e\u092b\u0940
p829
F0.00076452599388379206
sV\u0907\u0932\u0947\u0915\u094d\u091f\u094d\u0930\u0949\u0928\u093f\u0915\u094d\u0938
p830
F0.00076452599388379206
sV\u0926\u092e
p831
F2.1673570836785419
sV\u091a\u093e\u0932
p832
F0.00076452599388379206
sV\u0935\u093e\u0938\u094d\u0924\u0935
p833
F1.1739850869925434
sV\u0915\u094c\u0928
p834
F1.0836785418392709
sV\u091c\u093f\u0917\u093e
p835
F0.00076452599388379206
sV\u0906\u0938\u092a\u093e\u0938
p836
F2.1673570836785419
sV\u091a\u093e\u092f
p837
F0.00076452599388379206
sV(80)
p838
F0.00076452599388379206
sV\u0907\u0902\u0924\u091c\u093c\u093e\u0930
p839
F0.0016570008285004142
sV\u091c\u093e\u0928\u0947
p840
F0.00076452599388379206
sV\u092c\u094d\u0930\u0947\u0915
p841
F0.00076452599388379206
sV\u092d\u094d\u0930\u093e\u092e\u0915
p842
F0.0045871559633027525
sV\u0936\u0940\u0930\u094d\u0937\u0915
p843
F0.00076452599388379206
sV\u092d\u0947\u091c
p844
F0.0024855012427506215
sV\u0938\u094d\u092a\u0930\u094d\u0936
p845
F0.00082850041425020708
sV\u0906\u0927\u093e\u0930\u093f\u0924
p846
F0.00082850041425020708
sV\u0930\u093f\u0935\u0947\u0930\u094d\u0926\u093e\u0902\u0938
p847
F0.00076452599388379206
sV\u092c\u091a\u094d\u091a\u093e
p848
F0.00082850041425020708
sV\u0906\u0930\u093e\u0927\u094d\u092f
p849
F0.00082850041425020708
sV\u092c\u093e\u0907\u0915
p850
F0.00082850041425020708
sV\u092a\u0941\u0938\u094d\u0924\u0915\u093e\u0932\u092f
p851
F0.00082850041425020708
sV\u0926\u093f\u0932\u091a\u0938\u094d\u092a
p852
F1.6255178127589065
sV\u0915\u093f\u0924\u0928\u093e
p853
F0.0016570008285004142
sV\u0935\u0948\u091c\u094d\u091e\u093e\u0928\u093f\u0915
p854
F0.00076452599388379206
sV500
p855
F0.00076452599388379206
sV\u0938\u092e\u094d\u092e\u094b\u0939\u0915
p856
F0.00082850041425020708
sV\u0935\u0930\u094d\u0923\u0928
p857
F1.8455657492354742
sV\u092e\u0948\u0902
p858
F1.5653134493233913
sV\u0938\u0941\u0916\u093e\u0928\u0947
p859
F0.00082850041425020708
sV-\u0915\u093e
p860
F0.00076452599388379206
sV\u0907\u0902\u091f\u0940\u0930\u093f\u092f\u0930
p861
F0.00082850041425020708
sV\u0915\u093f\u0924\u0928\u0947
p862
F0.00082850041425020708
sV\u092e\u093e\u0932\u093f\u0915
p863
F1.0836785418392709
sV\u092e\u0948\u0915
p864
F0.0015290519877675841
sV\u0928\u093f\u0930\u094d\u092e\u093e\u0923
p865
F1.2303771661569827
sV\u092e\u0948\u091f
p866
F0.00076452599388379206
sV\u0938\u0902\u0917\u0924
p867
F0.0015290519877675841
sV\u092c\u091a\u094d\u091a\u0947
p868
F2.7091963545981774
sV\u0938\u0949\u092b\u094d\u091f\u0935\u0947\u092f\u0930
p869
F1.8455657492354742
sV\u091c\u093e\u0928\u093e
p870
F1.0836785418392709
sV\u091a\u093f\u0924\u094d\u0930\u094b\u0902
p871
F2.1673570836785419
sV\u0932\u093f\u0916\u093e
p872
F0.00082850041425020708
sV\u0924\u093e\u091c\u093e
p873
F0.0024855012427506215
sV\u092a\u0930\u094d\u092f\u093e\u092a\u094d\u0924
p874
F3.251035625517813
sV\u0915\u0930\u094d\u0938\u0930
p875
F0.00076452599388379206
sV\u0915\u0948\u0928\u0928
p876
F0.0015290519877675841
sV\u0915\u092c\u093e\u095c
p877
F0.0015290519877675841
sV\u0925\u094b\u0921\u093c\u0947
p878
F0.00082850041425020708
sV\u0938\u0948\u0928\u094d\u092f
p879
F0.00082850041425020708
sV\u0927\u0940\u092e\u0940
p880
F0.0030581039755351682
sV\u0918\u0941\u0902\u0918\u0930\u093e\u0932\u0947
p881
F0.00082850041425020708
sV\u0938\u0941\u0928\u0938\u093e\u0928
p882
F0.00076452599388379206
sV\u092e\u093e\u0901
p883
F0.00082850041425020708
sV\u0915\u0949\u092b\u0940
p884
F0.00076452599388379206
sV\u092e\u0942\u0932\u094d\u092f\u093e\u0902\u0915\u0928
p885
F0.00082850041425020708
sV\u091f\u0948\u091f\u0942
p886
F0.00076452599388379206
sV$20
p887
F0.00076452599388379206
sV\u092e\u093e\u0932
p888
F0.00076452599388379206
sV\u0930\u093f\u0915\u094d\u0924
p889
F0.00076452599388379206
sV\u092a\u0948\u0930\u094b\u0902
p890
F0.00076452599388379206
sV\u0938\u092e\u0917\u094d\u0930
p891
F0.00082850041425020708
sV\u092e\u093e\u092b
p892
F0.0022935779816513763
sV\u092e\u093e\u092a
p893
F0.00082850041425020708
sV\u091f\u093f\u092a\u094d\u092a\u0923\u0940
p894
F0.0016570008285004142
sV\u0938\u0928\u0915\u0940
p895
F0.00076452599388379206
sV\u091f\u094b\u0905\u0938\u094d\u091f\u093f\u0902\u0917
p896
F0.00082850041425020708
sV\u092c\u0938
p897
F1.6255178127589065
sV\u092c\u0939
p898
F0.00076452599388379206
sV\u092c\u0942
p899
F0.00076452599388379206
sV\u0938\u0940\u0916\u094b
p900
F0.00076452599388379206
sV\u092c\u0940
p901
F0.00076452599388379206
sV\u0905\u0902\u0924\u093f\u092e
p902
F0.00076452599388379206
sV\u0915\u0941\u091b
p903
F1.5160004368719964
sV\u0924\u0948\u092f\u093e\u0930
p904
F0.00076452599388379206
sV\u092c\u095d
p905
F0.00082850041425020708
sV\u092c\u0941\u0928\u093f\u092f\u093e\u0926\u0940
p906
F0.00076452599388379206
sV\u092e\u0936\u0940\u0928
p907
F2.1673570836785419
sV\u0938\u093f\u0924\u093e\u0930\u0947
p908
F3.251035625517813
sV\u0930\u0902\u0917\u092e\u0902\u091a\u0940\u092f
p909
F0.00076452599388379206
sV\u091a\u0932
p910
F1.3841743119266057
sV\u0907\u0928\u094d\u0939\u0947\u0902
p911
F4.3347141673570837
sV'\u092e\u0947\u0902
p912
F0.00076452599388379206
sV\u0916\u0941\u0936\u0928\u0941\u092e\u093e
p913
F0.00082850041425020708
sV\u092c\u0902\u0926\u0942\u0915
p914
F1.0836785418392709
sV\u092e\u093e\u0924\u093e
p915
F0.00082850041425020708
sV\u0905\u0938\u092b\u0932
p916
F0.00076452599388379206
sV\u0926\u0941\u0930\u093e\u0938\u0932\u094d\u0932
p917
F0.00076452599388379206
sV\u0916\u0941\u0936\u092c\u0942
p918
F0.0049710024855012429
sV4
F1.0836785418392709
sV\u0916\u0941\u0936\u092c\u0941
p919
F0.00082850041425020708
sV\u092c\u0947\u0935\u0915\u0942\u095e
p920
F0.00082850041425020708
sV\u0915\u0943\u092a\u092f\u093e
p921
F0.0022935779816513763
sV\u0938\u094b\u0928\u0947
p922
F0.0016570008285004142
sV\u0909\u092a\u0932\u092c\u094d\u0927
p923
F0.0016570008285004142
sV\u092e\u091b\u0932\u0940
p924
F0.00082850041425020708
sV\u0905\u0928\u0941\u0938\u0902\u0927\u093e\u0928
p925
F0.00082850041425020708
sV\u092a\u0948\u0915\u0947\u091c\u093f\u0902\u0917
p926
F0.00082850041425020708
sV\u091d\u093e\u0921\u0928
p927
F0.00082850041425020708
sV\u092c\u0947\u0935\u0915\u0942\u092b
p928
F0.0038226299694189602
sV\u0911\u095e\u093f\u0938
p929
F0.00082850041425020708
sV\u092a\u094d\u0930\u094b\u0924\u094d\u0938\u093e\u0939\u093f\u0924
p930
F0.00082850041425020708
sV\u0924\u0948\u0902\u0924\u0940\u0938
p931
F0.00076452599388379206
sV\u0921\u0940\u091c\u0947
p932
F0.00076452599388379206
sV\u092e\u094b\u091c\u0947
p933
F0.00082850041425020708
sV\u0938\u093e\u0925
p934
F1.0543899326003716
sV\u0926\u0941\u0916\u0940
p935
F0.0015290519877675841
sV\u0938\u093e\u092b
p936
F0.0033140016570008283
sV\u0909\u0938\u0938\u0947
p937
F0.00082850041425020708
sV\u0938\u093e\u0932
p938
F2.4382767191383596
sV\u0909\u092a\u0939\u093e\u0930
p939
F5.9602319801159895
sV\u0938\u0947\u091f\u0905\u092a
p940
F0.00076452599388379206
sV\u0916\u0930\u0940\u0926\u0947\u0902
p941
F0.00082850041425020708
sV\u0906\u0924\u093e
p942
F1.845565749235474
sV\u092c\u0928\u093e\u0924\u093e
p943
F0.0024855012427506215
sV\u092b\u093f\u0938\u0932\u0928
p944
F0.00076452599388379206
sV\u091a\u093e\u0939\u0924\u0947
p945
F0.00076452599388379206
sV\u0928\u0935\u0940\u0928\u0924\u092e
p946
F0.00082850041425020708
sV\u0938\u0941\u0932\u092d
p947
F0.00082850041425020708
sV\u0932\u0917\u0924\u0947
p948
F0.00076452599388379206
sV\u0907\u0938\u094d\u0924\u0947\u092e\u093e\u0932
p949
F6.140845070422535
sV\u092a\u094d\u0932\u093e\u0938\u094d\u091f\u093f\u0915
p950
F0.0022935779816513763
sV\u0939\u0949\u0932\u0940\u0935\u0941\u0921
p951
F0.00076452599388379206
sV\u0935\u093f\u0936\u093e\u0932
p952
F0.00082850041425020708
sV\u0932\u0947\u0928\u0926\u0947\u0928
p953
F0.00082850041425020708
sV\u092a\u094d\u0930\u0915\u0930\u0923
p954
F0.0016570008285004142
sV\u0932\u0917\u0924\u093e
p955
F1.264291632145816
sV\u0928\u0940\u091a\u0947
p956
F1.3841743119266057
sV\u0909\u092e\u094d\u092e\u0940\u0926\u094b\u0902
p957
F1.0836785418392709
sV\u092c\u0928\u093e\u0924\u0940
p958
F0.00076452599388379206
sV\u092c\u0928\u093e\u0924\u0947
p959
F0.00082850041425020708
sV\u0936\u0948\u0932\u0940
p960
F1.0836785418392709
sV\u0906\u0924\u0940
p961
F0.00076452599388379206
sV\u0906\u0935\u0936\u094d\u092f\u0915\u0924\u093e\u0913\u0902
p962
F0.00082850041425020708
sV\u0906\u0924\u0947
p963
F1.0836785418392709
sV\u0915\u092e\u093e\u0932
p964
F2.1673570836785419
sV\u0926\u0941\u0915\u093e\u0928\u094b\u0902
p965
F0.00082850041425020708
sV\u0932\u0917\u093e\u092f\u093e
p966
F0.0015290519877675841
sV\u0936\u093e\u0930\u0940\u0930\u093f\u0915
p967
F0.00082850041425020708
sV\u0935\u093f\u092a\u0930\u0940\u0924
p968
F0.00076452599388379206
sV\u0915\u0948\u092e\u0930\u0947
p969
F0.0022935779816513763
sV\u0939\u093f\u0938\u094d\u0938\u093e
p970
F0.00082850041425020708
sV\u092c\u0926\u0938\u0942\u0930\u0924
p971
F0.0015290519877675841
sV\u092e\u095b\u093e
p972
F0.0033140016570008283
sV\u0938\u093e\u0907\u091f
p973
F1.8455657492354742
sV\u0936\u0942\u0928\u094d\u092f
p974
F0.00076452599388379206
sV\u0928\u0915\u0932\u0940
p975
F0.0022935779816513763
sV\u0932\u093f\u092f\u093e
p976
F5.4183927091963549
sV\u0938\u093e\u092e\u092f\u093f\u0915
p977
F0.00076452599388379206
sV\u0939\u092e\u093e\u0930\u0947
p978
F3.251035625517813
sV\u0939\u092e\u093e\u0930\u0940
p979
F0.00082850041425020708
sV\u092b\u094b\u092e
p980
F0.00076452599388379206
sV\u0916\u093e\u0924\u0940
p981
F0.00076452599388379206
sV\u092e\u091c\u092c\u0942\u0924
p982
F0.00082850041425020708
sV\u0905\u0938\u0939\u0928\u0940\u092f
p983
F0.00082850041425020708
sV\u0935\u093f\u0924\u0930\u093f\u0924
p984
F0.00076452599388379206
sV\u0926\u0947\u0916\u0924\u093e
p985
F0.00082850041425020708
sV\u0925\u093e\u0932\u0940
p986
F0.00082850041425020708
sV\u0916\u093e\u0924\u093e
p987
F0.00082850041425020708
sV\u0938\u093e\u0907\u095b
p988
F0.00082850041425020708
sV\u0939\u092e\u093e\u0930\u093e
p989
F3.251035625517813
sV\u0917\u093e\u0928\u093e
p990
F0.0015290519877675841
sV\u091f\u094b\u0938\u094d\u091f\u0930
p991
F0.00082850041425020708
sV\u092a\u0930\u093f\u0935\u093e\u0930
p992
F1.0836785418392709
sV\u0926\u094b\u0937
p993
F1.8455657492354742
sV\u092c\u0947\u0924\u0930\u0924\u0940\u092c
p994
F0.00076452599388379206
sV\u0926\u093f\u0938\u0902\u092c\u0930
p995
F0.00076452599388379206
sV\u0905\u0928\u0941\u0935\u093e\u0926
p996
F0.00076452599388379206
sV\u092e\u094b\u091f\u094b\u0930\u094b\u0932\u093e
p997
F0.00076452599388379206
sV\u092c\u093e\u0939
p998
F0.00076452599388379206
sV\u0905\u0928\u0941\u0915\u0942\u0932
p999
F1.0836785418392709
sV\u0930\u0942\u095d\u093f\u0935\u093e\u0926\u0940
p1000
F0.00082850041425020708
sV2X
p1001
F0.00076452599388379206
sV\u0927\u094d\u0935\u0928\u093f
p1002
F6.4594801223241589
sV\u0924\u0915\u0926
p1003
F0.00076452599388379206
sV\u0935\u093f\u092e\u093e\u0928
p1004
F0.00082850041425020708
sV\u0915\u0932\u093e\u0915\u093e\u0930\u094b\u0902
p1005
F1.0836785418392709
sV\u092a\u0938\u0902\u0926\u0940\u0926\u093e
p1006
F5.4183927091963549
sV\u0939\u094b\u0928\u0947
p1007
F1.0836785418392709
sV\u0939\u094b\u0928\u0940
p1008
F0.00082850041425020708
sV\u0921\u0949\u091f
p1009
F0.00076452599388379206
sV\u0926\u0941\u0915\u093e\u0928
p1010
F0.0015290519877675841
sV\u0906\u0924\u094d\u092e
p1011
F0.00076452599388379206
sV\u091b\u0932\u093e\u0902\u0917
p1012
F0.00082850041425020708
sV\u0930\u093f\u091f\u0930\u094d\u0928
p1013
F0.00076452599388379206
sV5
F1.0836785418392709
sV\u0916\u094b\u091c\u0928\u0947
p1014
F1.8455657492354742
sV\u0915\u094d\u0930\u0947\u0924\u093e
p1015
F0.00076452599388379206
sV\u0924\u0930\u0940\u0915\u0947
p1016
F0.00076452599388379206
sV\u092c\u093e\u0932
p1017
F2.1673570836785419
sV\u092f\u0926\u093f
p1018
F3.6911314984709485
sV\u092d\u092f\u093e\u0928\u0915
p1019
F0.016819571865443424
sV\u0924\u0930\u0940\u0915\u093e
p1020
F2.7091963545981774
sV\u0936\u0947\u0915\u094d\u0938\u092a\u093f\u092f\u0930
p1021
F0.00076452599388379206
sV\u0915\u093e\u0930\u094d\u092f\u093e\u0924\u094d\u092e\u0915
p1022
F1.0836785418392709
sV\u092c\u093e\u0932\u0915
p1023
F0.00082850041425020708
sV\u092c\u0948\u0932\u0917\u093e\u0921\u093c\u0940
p1024
F0.00076452599388379206
sV\u0938\u094b\u0928\u0940
p1025
F0.00076452599388379206
sV\u092e\u0941\u0916\u094d\u092f
p1026
F0.00076452599388379206
sV\u092b\u093f\u0932\u094d\u092e
p1027
F1.0381307339449541
sV\u0917\u0941\u0938\u094d\u0938\u0947
p1028
F0.00076452599388379206
sV\u091c\u0902\u0917\u0932\u0940
p1029
F0.00082850041425020708
sV\u0938\u093f\u0938\u094d\u091f\u092e
p1030
F0.00082850041425020708
sV\u092a\u0942\u0930\u094d\u0935\u093e\u0928\u0941\u092e\u093e\u0928
p1031
F0.00076452599388379206
sV\u0916\u094b\u092a\u095c\u0940
p1032
F1.0836785418392709
sV\u092e\u093f\u0932
p1033
F1.0836785418392709
sV\u091a\u0932\u0947
p1034
F0.00076452599388379206
sV\u092a\u0948\u0902\u091f
p1035
F0.00082850041425020708
sV\u0938\u093e\u092e\u0928\u0947
p1036
F0.00076452599388379206
sV\u0916\u0941\u0932\u093e
p1037
F0.00076452599388379206
sV\u092b\u094b\u091f\u094b
p1038
F0.00076452599388379206
sV\u092a\u0948\u0938\u0947
p1039
F4.8446100917431201
sV\u0938\u094c\u0902\u092a\u0928\u0947\u0935\u093e\u0932\u093e
p1040
F0.00076452599388379206
sV\u092a\u094d\u0930\u0936\u0902\u0938\u0915
p1041
F0.0024855012427506215
sV\u0921\u0947\u0936
p1042
F0.00082850041425020708
sV\u092a\u091f\u0930\u093f\u092f\u093e\u0902
p1043
F0.00082850041425020708
sV\u091f\u093e\u0907\u0917\u0930
p1044
F0.00082850041425020708
sV\u0905\u0932\u0917
p1045
F1.2303771661569827
sV\u0928\u093f\u0930\u094d\u0926\u0947\u0936
p1046
F1.0836785418392709
sV\u0938\u0941\u0916\u0926
p1047
F0.00082850041425020708
sV\u091a\u093e\u0930\u094d\u091c\u0930
p1048
F0.0015290519877675841
sV\u0909\u0938\u0947
p1049
F0.0041425020712510356
sV\u0928\u094c
p1050
F0.0015290519877675841
sV\u0915\u093f\u092f\u093e
p1051
F1.0836785418392709
sV\u0909\u092a\u092f\u094b\u0917\u0940
p1052
F4.3347141673570837
sV\u0928\u0947
p1053
F1.444904722452361
sV\u090f\u0915\u0926\u092e
p1054
F0.0024855012427506215
sV\u0928\u093e
p1055
F2.1673570836785419
sV\u0939\u093e\u0932\u0924
p1056
F0.0057995028997514502
sV\u0939\u092e\u0947
p1057
F0.00076452599388379206
sV\u0915\u093f\u092f\u0947
p1058
F2.1673570836785419
sV\u0938\u094d\u0935\u093e\u092e\u093f\u0924\u094d\u0935
p1059
F0.00082850041425020708
sV\u0924\u093e\u0930\u0940\u0916
p1060
F0.00082850041425020708
sV\u0917\u0902\u0926\u0947
p1061
F0.00076452599388379206
sV\u0938\u094d\u0915\u0930\u094d\u091f
p1062
F0.00076452599388379206
sV\u092c\u0947\u0921\u0930\u0942\u092e
p1063
F0.00082850041425020708
sV\u0928\u0908
p1064
F0.0015290519877675841
sV\u092a\u0948\u0938\u093e
p1065
F0.0015290519877675841
sV\u0928\u090f
p1066
F1.0836785418392709
sV\u0939\u0948\u0902?
p1067
F0.0016570008285004142
sV\u092a\u094d\u0930\u0936\u093f\u0915\u094d\u0937\u0923
p1068
F0.00082850041425020708
sV\u0938\u0941\u092a\u0930
p1069
F1.3841743119266057
sV\u092a\u094b\u0930
p1070
F0.00076452599388379206
sV\u0906\u0907\u091f\u092e
p1071
F1.6255178127589065
sV\u0938\u0902\u0917\u094d\u0930\u093e\u092e:
p1072
F0.00076452599388379206
sV\u092e\u0928\u094b\u0935\u0948\u091c\u094d\u091e\u093e\u0928\u093f\u0915
p1073
F2.1673570836785419
sV\u0906\u092f\u093e\u092e\u0940
p1074
F0.00076452599388379206
sV\u090f\u0938\u0921\u0940
p1075
F0.00076452599388379206
sV\u0917\u094b\u0932\u094d\u092b
p1076
F0.00082850041425020708
sV\u0905\u0926\u094d\u092d\u0941\u0924
p1077
F0.0082850041425020712
sV\u0930\u093e\u0938\u094d\u0924\u093e
p1078
F1.0836785418392709
sV\u0939\u093e\u0928\u093f\u0930\u0939\u093f\u0924
p1079
F0.00082850041425020708
sV\u092e\u0947\u091f\u094d\u0930\u093f\u0915
p1080
F0.00082850041425020708
sV\u0907\u0924\u0928\u0940
p1081
F2.7683486238532113
sV\u092a\u094d\u0930\u0936\u093f\u0915\u094d\u0937\u0915
p1082
F0.00076452599388379206
sV\u0939\u0942\u0901
p1083
F2.2615900003602176
sV\u0938\u0938\u094d\u0924\u0947
p1084
F0.0053516819571865441
sV\u0938\u0938\u094d\u0924\u0940
p1085
F1.0836785418392709
sV\u0915\u0941\u0924\u094d\u0924\u094b\u0902
p1086
F1.0836785418392709
sV\u092e\u0940\u0920\u0940
p1087
F0.00082850041425020708
sV\u092e\u0940\u0920\u093e
p1088
F0.00076452599388379206
sV\u0938\u0938\u094d\u0924\u093e
p1089
F0.0038226299694189602
sV\u092b\u093f\u091f\u0928\u0947\u0938
p1090
F0.00082850041425020708
sV\u092f\u0941\u0935\u093e
p1091
F0.0015290519877675841
sV\u0907\u0924\u0928\u093e
p1092
F1.8455657492354742
sV\u0938\u0924\u094d\u092f
p1093
F0.00082850041425020708
sV\u091c\u0932\u094d\u0926\u0940
p1094
F1.0836785418392709
sV\u0938\u0941\u0928\u094d\u0926\u0930
p1095
F0.0041425020712510356
sV\u0939\u093f\u091a\u0915\u093f\u091a\u093e\u0939\u091f
p1096
F0.00082850041425020708
sV\u0932\u0918\u0941
p1097
F0.00076452599388379206
sV\u0915\u0935\u0930
p1098
F1.0836785418392709
sV\u092a\u0930\u093f\u0926\u0943\u0936\u094d\u092f
p1099
F0.00076452599388379206
sV\u0905\u0938\u0902\u092d\u0935
p1100
F0.0015290519877675841
sV\u0938\u094d\u091f\u093e\u0907\u0932\u093f\u0936
p1101
F0.0016570008285004142
sV(_)(_)=====
p1102
F0.00082850041425020708
sV\u092a\u0922\u0928\u093e
p1103
F0.00082850041425020708
sV\u0916\u0924\u094d\u092e
p1104
F0.00076452599388379206
sV\u0938\u0930\u093e\u0939\u0928\u093e
p1105
F0.00082850041425020708
sV\u0909\u091a\u093f\u0924
p1106
F1.0836785418392709
sV\u0915\u0930\u0924\u0947
p1107
F2.1673570836785419
sV\u0915\u0940\u092e\u0924
p1108
F7.0439105219552607
sV\u0915\u0930\u0924\u0940
p1109
F0.0016570008285004142
sV\u0938\u094b\u091a\u093e
p1110
F1.1534785932721714
sV\u0905\u0928\u092b\u094b\u0915\u0938\u094d\u0921
p1111
F0.00076452599388379206
sV\u091d\u0941\u0930\u094d\u0930\u093f\u092f\u094b\u0902
p1112
F0.00082850041425020708
sV\u0921\u0930\u093e\u0935\u0928\u0940
p1113
F0.00076452599388379206
sV\u092a\u094d\u0930\u093e\u092a\u094d\u0924\u093f
p1114
F0.00082850041425020708
sV\u091a\u0941\u0915\u0947
p1115
F0.00082850041425020708
sV\u0916\u0948\u0930
p1116
F0.0016570008285004142
sV6
F1.0836785418392709
sV\u091f\u094b\u092a\u0940
p1117
F3.251035625517813
sV\u0925\u0915\u093e\u090a
p1118
F0.0015290519877675841
sV\u0909\u091c\u094d\u091c\u094d\u0935\u0932
p1119
F0.00082850041425020708
sV\u0906\u0909\u091f\u0921\u094b\u0930
p1120
F0.00076452599388379206
sV\u0938\u093f\u0924\u093e\u0930\u093e
p1121
F0.0015290519877675841
sV\u091a\u0941\u0915\u093e
p1122
F0.00082850041425020708
sV\u0906\u0926\u0947\u0936
p1123
F2.7683486238532113
sV\u091d\u0942\u0932\u093e
p1124
F0.00076452599388379206
sV\u092b\u0942\u0932\u0940
p1125
F0.00076452599388379206
sV\u0915\u0941\u0902\u0921\u093e
p1126
F0.00082850041425020708
sV\u0915\u0930\u0924\u093e
p1127
F3.9179147281881335
sV\u092a\u094d\u0930\u0924\u093f\u092d\u093e\u0936\u093e\u0932\u0940
p1128
F0.0022935779816513763
sV\u0924\u0928\u093e\u0935
p1129
F0.00082850041425020708
sV\u0911\u0928\u0932\u093e\u0907\u0928
p1130
F0.00082850041425020708
sV\u0928\u093f\u092a\u094d\u092a\u093f\u091f\u094d\u0938
p1131
F0.00076452599388379206
sV\u0906\u0901\u0916
p1132
F0.00076452599388379206
sV\u0935\u093f\u092b\u0932\u0924\u093e\u0913\u0902
p1133
F0.00076452599388379206
sV\u0935\u093f\u0928\u094d\u0938\u0947\u0928\u094d\u091f
p1134
F0.00082850041425020708
sV\u0917\u0930\u093e\u091c
p1135
F0.00076452599388379206
sV\u092e\u0924\u0932\u092c
p1136
F0.00076452599388379206
sV\u0915\u094b\u0938\u094d\u091f\u0930
p1137
F0.0015290519877675841
sV\u092f\u0947
p1138
F1.6255178127589065
sV\u0906\u0917\u0947
p1139
F0.00082850041425020708
sV\u0938\u0949\u092b\u094d\u091f\u0935\u0947\u0930
p1140
F0.00076452599388379206
sV\u0906\u0936\u094d\u091a\u0930\u094d\u092f\u091c\u0928\u0915
p1141
F1.0836785418392709
sV\u0938\u093f\u0930\u094d\u092b
p1142
F5.5366972477064227
sV\u0938\u092e\u094d\u092e\u093e\u0928
p1143
F0.00076452599388379206
sV\u0909\u0928\u0915\u093e
p1144
F0.00082850041425020708
sV\u092a\u0930\u093f\u092f\u094b\u091c\u0928\u093e
p1145
F0.00076452599388379206
sV\u090f\u090f\u090f
p1146
F0.00076452599388379206
sV\u0924\u0940\u0928
p1147
F2.1673570836785419
sV\u0935\u093e\u0928
p1148
F0.00082850041425020708
sV\u0906\u092a\u0915\u0940
p1149
F0.00076452599388379206
sV\u091c\u093e\u0928\u0915\u093e\u0930\u0940\u092a\u0942\u0930\u094d\u0923
p1150
F0.00082850041425020708
sV\u0906\u092a\u0915\u094b
p1151
F0.00076452599388379206
sV\u092e\u0941\u091d
p1152
F1.8455657492354742
sV\u0938\u093e\u092e\u093e\u0928
p1153
F5.5366972477064227
sV\u0915\u093e\u0930\u0915
p1154
F0.00076452599388379206
sV\u092a\u0949\u092a
p1155
F0.00082850041425020708
sV\u0938\u094d\u0928\u094b\u092c\u094b\u0930\u094d\u0921\u093f\u0902\u0917
p1156
F0.00076452599388379206
sV\u092d\u0941\u0917\u0924\u093e\u0928
p1157
F0.0015290519877675841
sV\u0932\u093e\u0926\u0928\u0947
p1158
F0.00076452599388379206
sV\u0905\u0938\u094d\u0925\u093f\u0930
p1159
F0.00076452599388379206
sV\u090f\u0930\u094b\u092c\u093f\u0915
p1160
F0.00082850041425020708
sV\u0909\u0928\u0915\u0947
p1161
F2.1673570836785419
sV\u092a\u0939\u093f\u092f\u094b\u0902
p1162
F0.00076452599388379206
sV\u092c\u0947\u0924\u0941\u0915\u093e
p1163
F0.00076452599388379206
sV\u092f\u093e
p1164
F0.0030581039755351682
sV\u092f\u0939
p1165
F1.2582307901892207
sV\u0928\u0943\u0924\u094d\u092f
p1166
F0.00076452599388379206
sV\u092a\u094d\u0930\u0940\u092e\u093f\u092f\u092e
p1167
F0.00076452599388379206
sV\u0915\u093e\u0930\u0923
p1168
F0.0022935779816513763
sV\u0939\u094b\u0928\u093e
p1169
F0.0015290519877675841
sV\u0906\u0930\u0902\u092d
p1170
F0.00076452599388379206
sV\u0905\u0928\u0947\u0915
p1171
F1.0836785418392709
sV\u092c\u0922\u093c\u093f\u092f\u093e
p1172
F0.00082850041425020708
sV\u0907\u0902\u091f\u0930\u0928\u0947\u091f
p1173
F0.00082850041425020708
sV\u0916\u0930\u094d\u091a
p1174
F1.0836785418392709
sV\u0926\u0947\u0916\u0947
p1175
F0.00082850041425020708
sV\u0938\u0941\u091d\u093e\u0935
p1176
F1.8455657492354742
sV\u092c\u0928
p1177
F0.00076452599388379206
sV\u091c\u093f\u0924\u0928\u0947
p1178
F0.0033140016570008283
sV\u092c\u0926\u092c\u0942
p1179
F0.00076452599388379206
sV\u092c\u094b\u0930
p1180
F0.0015290519877675841
sV\u0916\u0941\u091c\u0932\u0940
p1181
F0.00076452599388379206
sV20
p1182
F0.0015290519877675841
sV\u091a\u0930\u094d\u091a\u093e
p1183
F0.00076452599388379206
sV\u0915\u093e\u0930\u094d\u092f\u0915\u094d\u0930\u092e
p1184
F1.0836785418392709
sV28
p1185
F0.00082850041425020708
sV\u0924\u094d\u0935\u091a\u093e
p1186
F0.0033140016570008283
sV\u0905\u0935\u093f\u0936\u094d\u0935\u0938\u0928\u0940\u092f
p1187
F0.00082850041425020708
sV\u0938\u093e\u092c\u0941\u0928
p1188
F1.0836785418392709
sV\u0930\u094b\u092e\u093e\u0902\u091f\u093f\u0915
p1189
F1.0836785418392709
sV\u092c\u0947\u0939\u0924\u0930\u0940\u0928
p1190
F0.00082850041425020708
sV\u091c\u093f\u0938\u092e\u0947\u0902
p1191
F0.00076452599388379206
sV\u0936\u0915\u094d\u0924\u093f\u0936\u093e\u0932\u0940
p1192
F0.00082850041425020708
sV\u091c\u0928\u0915
p1193
F0.00082850041425020708
sV\u092a\u0941\u0930\u093e\u0928\u0947
p1194
F0.0022935779816513763
sV\u0930\u0916\u0928\u0947
p1195
F0.00082850041425020708
sV\u091c\u093f\u0924\u0928\u093e
p1196
F0.0016570008285004142
sV\u0938\u093f\u0926\u094d\u0927\u093e\u0902\u0924
p1197
F0.00076452599388379206
sV\u092a\u0947\u0936\u0947\u0935\u0930
p1198
F0.00076452599388379206
sV\u0932\u0947\u0935\u093f\u0938
p1199
F0.00076452599388379206
sV\u092a\u0924\u094d\u0930\u0915
p1200
F0.00076452599388379206
sV\u090f\u0938\u0940
p1201
F0.00076452599388379206
sV\u092d\u0917\u0935\u093e\u0928
p1202
F0.00082850041425020708
sV\u0932\u0947\u0916\u0928
p1203
F0.00076452599388379206
sV\u0926\u093f\u0916\u093e\u0908
p1204
F0.00076452599388379206
sV\u0928\u093f\u092f\u0902\u0924\u094d\u0930\u0923
p1205
F0.00082850041425020708
sV\u092a\u094d\u0932\u092f\u0947\u0930
p1206
F0.0015290519877675841
sV\u0917\u094d\u0930\u093e\u092b\u093f\u0915\u094d\u0938
p1207
F0.00082850041425020708
sV\u092e\u094c\u0938\u092e
p1208
F0.00082850041425020708
sV\u092e\u0949\u0928\u093f\u091f\u0930
p1209
F0.00076452599388379206
sV\u092b\u093e\u095c\u0947
p1210
F0.00076452599388379206
sV\u0926\u093e\u0917
p1211
F0.00076452599388379206
sV\u092a\u0930\u093f\u092a\u0942\u0930\u094d\u0923
p1212
F0.0016570008285004142
sV\u092e\u093f\u0932\u093e\u0928
p1213
F0.00082850041425020708
sV\u0924\u0925\u094d\u092f
p1214
F0.0016570008285004142
sV\u0928\u093f\u092e\u094d\u0928\u0932\u093f\u0916\u093f\u0924
p1215
F0.0030581039755351682
sV\u0930\u093e\u0924
p1216
F0.00076452599388379206
sV\u0938\u0939\u0940
p1217
F2.8175642087821045
sV\u092c\u093e\u0939\u0930
p1218
F4.6139143730886856
sV7
F0.00076452599388379206
sV\u092c\u095d\u0924\u0940
p1219
F0.00076452599388379206
sV\u0915\u0902\u092a\u0928\u0940
p1220
F0.0038226299694189602
sV\u092e\u093f\u0928\u091f
p1221
F0.0015290519877675841
sV\u0905\u0938\u0932\u0940
p1222
F3.251035625517813
sV\u0915\u094d\u092f\u0942\u0902\u0915\u093f
p1223
F0.00082850041425020708
sV\u092c\u093e\u0927\u0915
p1224
F0.00076452599388379206
sV\u0938\u0940\u092e\u093f\u0924
p1225
F0.00076452599388379206
sV\u091b\u0941\u091f\u0915\u093e\u0930\u093e
p1226
F0.0016570008285004142
sV\u0932\u093e\u092f\u0915
p1227
F1.444904722452361
sV\u091b\u094b\u095c\u0915\u0930
p1228
F0.00076452599388379206
sV\u0905\u0928\u0941\u0936\u0902\u0938\u093e
p1229
F0.0016570008285004142
sV\u0938\u0939\u091c
p1230
F0.00076452599388379206
sV\u0939\u0941\u090f
p1231
F1.8455657492354742
sV\u0939\u0941\u0908
p1232
F1.8455657492354742
sV\u0926\u0941\u0928\u093f\u092f\u093e
p1233
F0.0024855012427506215
sV\u0922\u0940\u0932\u093e
p1234
F0.00082850041425020708
sV\u0939\u0941\u0906
p1235
F1.0836785418392709
sV\u0932\u093e\u092f\u093e
p1236
F0.00082850041425020708
sV\u092a\u094d\u0932\u0947\u092f\u0930
p1237
F0.0015290519877675841
sV\u091a\u093e\u0939\u0942\u0901\u0917\u093e
p1238
F0.00082850041425020708
sV\u092e\u0927\u094d\u092f\u0935\u0930\u094d\u0924\u0940
p1239
F0.00082850041425020708
sV\u0935\u0948\u0915\u0932\u094d\u092a\u093f\u0915
p1240
F0.00082850041425020708
sV\u0928\u093f\u0915\u094b\u0928
p1241
F0.00076452599388379206
sV\u091a\u0930\u093f\u0924\u094d\u0930
p1242
F1.8455657492354742
sV\u0938\u093e\u091c\u093f\u0936
p1243
F0.00076452599388379206
sV\u0936\u0941\u0930\u0941\u0935\u093e\u0924
p1244
F0.00082850041425020708
sV\u092e\u0939\u0940\u0928\u094b\u0902
p1245
F0.00076452599388379206
sV\u091c\u093e\u0902\u0918\u093f\u092f\u093e
p1246
F0.00076452599388379206
sV\u0914\u0938\u0924
p1247
F0.0015290519877675841
sV\u0930\u091a\u0928\u093e\u0924\u094d\u092e\u0915\u0924\u093e
p1248
F0.00082850041425020708
sV\u090a\u092a\u0930
p1249
F0.00082850041425020708
sV\u0935\u094d\u092f\u093e\u092a\u093e\u0930\u0940
p1250
F0.00082850041425020708
sV\u0938\u092e\u093e\u092a\u094d\u0924
p1251
F0.00076452599388379206
sV\u0909\u092e\u094d\u092e\u0940\u0926\u0947
p1252
F0.00076452599388379206
sV\u092c\u093f\u0932\u094d\u0932\u0940
p1253
F2.1673570836785419
sV\u0938\u094d\u092a\u093f\u0928
p1254
F0.00082850041425020708
sV\u0916\u0942\u092c\u0938\u0942\u0930\u0924\u0940
p1255
F2.1673570836785419
sV\u0909\u092e\u094d\u0930
p1256
F0.0024855012427506215
sV\u092b\u093f\u0930
p1257
F3.251035625517813
sV\u0927\u094b\u0916\u093e\u0927\u095c\u0940
p1258
F0.00076452599388379206
sV\u092a\u0930\u093f\u092f\u094b\u091c\u0928\u093e\u0913\u0902
p1259
F0.00082850041425020708
sV\u092b\u0930\u094d\u091c\u0940
p1260
F0.00076452599388379206
sV\u0938\u092e\u0938\u094d\u092f\u093e
p1261
F2.1673570836785419
sV\u0924\u0941\u0932\u0928\u093e
p1262
F2.7091963545981774
sV\u0938\u0941\u0935\u0915\u094d\u0924\u093e
p1263
F0.00076452599388379206
sV\u0938\u0915\u094d\u0936\u0928
p1264
F1.0836785418392709
sV\u092e\u0941\u091d\u0938\u0947
p1265
F0.00082850041425020708
sV\u092a\u094d\u0930\u0915\u093e\u0930
p1266
F1.0836785418392709
sV\u0927\u094d\u092f\u093e\u0928
p1267
F3.6911314984709485
sV\u0935\u094d\u0939\u0942\u092a\u0940
p1268
F0.00082850041425020708
sV\u0907\u0938
p1269
F1.0836785418392709
sV\u092f\u0915\u0940\u0928
p1270
F1.0836785418392709
sV\u0935\u0947\u0928\u093f\u0932\u093e
p1271
F0.00082850041425020708
sV\u0906\u0908\u091f\u0940
p1272
F0.0015290519877675841
sV\u0916\u092c\u0930
p1273
F0.00076452599388379206
sV\u0905\u0926\u0943\u0936\u094d\u092f
p1274
F1.0836785418392709
sV\u0907\u0928
p1275
F2.889809444904722
sV\u0935\u093f\u0935\u0930\u0923
p1276
F1.8455657492354742
sV\u092a\u0902\u091a
p1277
F0.00076452599388379206
sV\u092e\u0941\u092b\u094d\u0924
p1278
F1.8455657492354742
sV\u092e\u093f\u0924\u094d\u0924\u093f\u0938
p1279
F0.00076452599388379206
sV\u0930\u0948\u0915
p1280
F0.00082850041425020708
sV\u092f\u0939\u0940
p1281
F0.0016570008285004142
sV\u0915\u093e\u0930\u0924\u0942\u0938
p1282
F0.0015290519877675841
sV\u0939\u0947\u0921\u092c\u0948\u0902\u0921
p1283
F0.00076452599388379206
sV\u0917\u0940\u0924
p1284
F2.7683486238532113
sV\u0909\u092a\u092f\u094b\u0917
p1285
F2.3028169014084505
sV\u092e\u093e\u092e\u0932\u094b\u0902
p1286
F1.8455657492354742
sV\u091c\u0917\u0939
p1287
F2.1673570836785419
sV\u092a\u094d\u0930\u0947\u092e\u093f\u092f\u094b\u0902
p1288
F0.00082850041425020708
sV\u0938\u0930\u0932\u0940\u0915\u0943\u0924
p1289
F0.00076452599388379206
sV\u092a\u0924\u094d\u0930
p1290
F0.00082850041425020708
sV\u0938\u093f\u0917\u094d\u0928\u0932
p1291
F0.00082850041425020708
sV\u0917\u0932\u0924
p1292
F0.0084097859327217118
sV\u0938\u0942\u0916\u0940
p1293
F0.00082850041425020708
sV\u092e\u0947\u092e\u094b\u0930\u0947\u0915\u094d\u0938
p1294
F0.00076452599388379206
sV\u0935\u093e\u092f\u0930\u0932\u0947\u0938
p1295
F0.00082850041425020708
sV\u0905\u0924\u094d\u092f\u0927\u093f\u0915
p1296
F1.0836785418392709
sV\u0935\u093f\u092b\u0932
p1297
F0.0030581039755351682
sV\u0917\u0932\u093e
p1298
F0.00076452599388379206
sV\u0935\u0940\u090f\u091a\u090f\u0938
p1299
F0.00076452599388379206
sV\u0921\u0930\u093e\u0935\u0928\u093e
p1300
F0.00076452599388379206
sV\u0938\u0947\u0915\u094d\u0938\u0940
p1301
F1.0836785418392709
sV\u0924\u0941\u092e
p1302
F0.0024855012427506215
sV\u0938\u0941\u0907\u091f
p1303
F0.00076452599388379206
sV\u0905\u0930\u094d\u0925
p1304
F0.00082850041425020708
sV\u0932\u093f\u092a\u092e\u0928
p1305
F0.00076452599388379206
sV\u092a\u0924\u094d\u0930\u0915\u093e\u0930\u093f\u0924\u093e
p1306
F0.00082850041425020708
sV\u0924\u093e\u095b\u093e
p1307
F0.00082850041425020708
sV\u0917\u094b\u0932\u094d\u0921\u092c\u0930\u094d\u0917
p1308
F0.00082850041425020708
sV\u0915\u0943\u0924\u093f
p1309
F0.00082850041425020708
sV\u0932\u0917
p1310
F1.0836785418392711
sV\u0928\u0941\u0915\u0940\u0932\u0947
p1311
F0.00076452599388379206
sV\u092e\u0947\u0932
p1312
F1.0836785418392709
sV\u0939\u093e\u092b
p1313
F0.00076452599388379206
sV\u0939\u093e\u0925
p1314
F1.8455657492354742
sV\u0917\u0941\u091a\u094d\u091b\u093e
p1315
F0.00076452599388379206
sV\u0907\u0928\u094d\u0938\u0941\u0932\u0947\u0936\u0928
p1316
F0.00076452599388379206
sV\u091a\u093e\u0930\u094d\u091c
p1317
F0.00076452599388379206
sV\u0930\u094b\u091a\u0915
p1318
F0.0016570008285004142
sV\u0927\u093e\u0930\u0915
p1319
F0.00082850041425020708
sV\u092e\u0947\u0902
p1320
F1.2297925025367009
sV\u0917\u094d\u0930\u0947\u091f
p1321
F0.0049710024855012429
sV\u0916\u0941\u0936\u094d\u092c\u0942
p1322
F0.00082850041425020708
sV\u0915\u093e\u0930\u094b\u0902
p1323
F0.00076452599388379206
sV\u0915\u0949\u092e\u094d\u092a\u0948\u0915\u094d\u091f
p1324
F0.00082850041425020708
sV\u092e\u0947\u091c
p1325
F1.0836785418392709
sV\u0917\u092f\u0940
p1326
F0.0033140016570008283
sV\u092a\u0939\u0928
p1327
F2.1673570836785419
sV\u0917\u092f\u093e
p1328
F1.7532874617737004
sV\u0915\u0948\u0902\u091a\u0940
p1329
F0.00082850041425020708
sV\u0926\u0947\u0916
p1330
F1.0836785418392709
sV\u0917\u0941\u092e\u0930\u093e\u0939
p1331
F0.00076452599388379206
sV\u0938\u0926\u092e\u0947
p1332
F0.00076452599388379206
sV\u0938\u0902\u0924\u0941\u0937\u094d\u091f
p1333
F13.004142502071252
sV\u0924\u094c\u0930
p1334
F0.0015290519877675841
sV\u0932\u0935\u0932\u0940
p1335
F0.00082850041425020708
sV\u0917\u093f\u0930\u093e
p1336
F0.00076452599388379206
sV\u092b\u093f\u091f
p1337
F2.4382767191383596
sV\u0915\u094d\u0930\u093f\u0938\u092e\u0938
p1338
F0.0041425020712510356
sV\u0920\u0902\u0921\u0940
p1339
F0.00076452599388379206
sV\u092a\u094d\u0930\u092e\u0941\u0916
p1340
F0.00082850041425020708
sV\u091a\u0940\u091c\u094b
p1341
F0.00082850041425020708
sV\u0924\u0940\u0916\u0940
p1342
F0.00082850041425020708
sV\u0926\u0947\u0928
p1343
F0.00082850041425020708
sV\u0935\u094d\u092f\u0902\u091c\u0928\u094b\u0902
p1344
F0.00082850041425020708
sV\u0918\u0930
p1345
F0.0033140016570008283
sV\u092e\u093f\u0932\u0947\u0917\u093e
p1346
F0.00082850041425020708
sV\u092b\u0942
p1347
F0.00082850041425020708
sV\u0938\u0915\u0924\u093e
p1348
F1.0836785418392709
sV\u0915\u0941\u0930\u094d\u0938\u0940
p1349
F0.0015290519877675841
sV\u0939\u094b\u0924\u0940
p1350
F0.0015290519877675841
sV\u092a\u094d\u0930\u0915\u093e\u0936
p1351
F0.00076452599388379206
sV\u0915\u0920\u093f\u0928
p1352
F1.0836785418392709
sV\u0915\u093e\u0930\u094d\u091f\u0942\u0928\u0907\u0936
p1353
F0.00076452599388379206
sV\u0907\u0938\u0928\u0947
p1354
F1.8455657492354742
sV\u0939\u094b\u0924\u0947
p1355
F1.8455657492354742
sV\u0917\u093f\u0930\u0928\u0947
p1356
F0.00082850041425020708
sV\u092c\u0948\u0902\u0921
p1357
F0.00082850041425020708
sV\u0915\u0932\u093e\u0915\u093e\u0930
p1358
F0.00082850041425020708
sV\u0938\u0902\u091a\u093e\u0932\u0928
p1359
F0.00082850041425020708
sV\u0935\u091c\u0939
p1360
F0.00076452599388379206
sV\u092e\u094d\u0915\u093e\u092b\u0940
p1361
F0.00076452599388379206
sV\u092a\u0930\u0928\u094d\u0924\u0941
p1362
F0.0030581039755351682
sV\u0928\u093f\u0927\u0928
p1363
F0.00076452599388379206
sV\u0926\u094b\u0928\u094b\u0902
p1364
F1.0836785418392709
sV\u0938\u0926\u0938\u094d\u092f\u0924\u093e
p1365
F0.00082850041425020708
sV\u0926\u093e\u0935\u093e
p1366
F0.00082850041425020708
sV\u0932\u0935
p1367
F0.00076452599388379206
sV\u0917\u094b\u0932\u0940
p1368
F0.00082850041425020708
sV\u0935\u093e\u0926\u093e
p1369
F0.00082850041425020708
sV\u0930\u0939\u0947\u0917\u093e
p1370
F0.00082850041425020708
sV\u0907\u0902\u091a
p1371
F0.00076452599388379206
sV\u0928\u093f\u092f\u092e\u093f\u0924
p1372
F0.00076452599388379206
sV\u0939\u093e\u0938\u094d\u092f
p1373
F0.00076452599388379206
sV\u0939\u094b\u0924\u093e
p1374
F1.3841743119266057
sV\u0909\u092e\u094d\u092e\u0940\u0926
p1375
F2.5285832642916319
sV\u0938\u0915\u0924\u0947
p1376
F1.186435124508519
sV\u0936\u093e\u0938\u094d\u0924\u094d\u0930\u0940\u092f
p1377
F0.0016570008285004142
sV\u0907\u0932\u093f\u092f\u091f
p1378
F0.00082850041425020708
sV\u0907\u0938\u0915\u093e
p1379
F3.251035625517813
sV\u0905\u091c\u0940\u092c
p1380
F2.3069571865443428
sV\u0909\u0924\u0930\u0928\u093e
p1381
F0.00082850041425020708
sV\u0926\u0942\u0902\u0917\u093e
p1382
F1.8455657492354742
sV\u0928\u0938\u094d\u0932\u0935\u093e\u0926\u0940
p1383
F0.00076452599388379206
sV\u0906\u0917\u094d\u0930\u0939\u092a\u0942\u0930\u094d\u0935\u0915
p1384
F0.00082850041425020708
sV\u092a\u0939\u0928\u0928\u0947
p1385
F1.0836785418392709
sV\u0930\u0902\u0917
p1386
F3.251035625517813
sV\u0907\u0928\u0915\u0947
p1387
F0.00082850041425020708
sV\u091b\u0947\u0926
p1388
F0.00076452599388379206
sV\u0928
F0.0015290519877675841
sV\u092c\u0947\u091c\u093e\u0928
p1389
F0.00076452599388379206
sV\u0932\u0947\u0924\u093e
p1390
F0.0024855012427506215
sV\u0905\u091a\u094d\u091b\u094b\u0902
p1391
F0.00082850041425020708
sV\u092a\u093e\u092f\u093e
p1392
F0.00082850041425020708
sV\u091a\u093f\u0924\u094d\u0930
p1393
F1.8455657492354742
sV\u0915\u0942\u0926
p1394
F0.00082850041425020708
sV\u0938\u092c\u0938\u0947
p1395
F1.2462303231151617
sV\u0905\u092d\u0940
p1396
F1.2384897621020239
sV\u0932\u094b\u0917\u094b\u0902
p1397
F1.0836785418392709
sV\u0915\u0947\u0921\u0938
p1398
F0.00082850041425020708
sV\u0968
F0.00082850041425020708
sV\u0907\u0938\u0915\u0940
p1399
F7.5857497928748971
sV\u0907\u0938\u0915\u0947
p1400
F1.0381307339449541
sV\u092e\u0941\u091d\u0947
p1401
F1.1779114585209467
sV\u0938\u092b\u0932
p1402
F0.00076452599388379206
sV\u0907\u0938\u0915\u094b
p1403
F2.1673570836785419
sV\u092f\u0941\u0926\u094d\u0927
p1404
F0.00082850041425020708
sV\u092f\u0942\u0928\u093f\u091f
p1405
F0.00082850041425020708
sV\u091b\u093e\u092f\u093e\u0902\u0915\u0928
p1406
F0.00082850041425020708
sV\u0936\u093e\u0926\u0940
p1407
F0.00082850041425020708
sV\u0938\u0915\u094d\u0937\u092e
p1408
F1.0836785418392709
sV\u092f\u093e\u0926\u094b\u0902
p1409
F0.00076452599388379206
sV\u091f\u0941\u0915\u095c\u093e
p1410
F6.4594801223241589
sV\u0935\u091c\u0928
p1411
F0.00082850041425020708
sV\u092c\u0926\u0932\u0928\u093e
p1412
F0.00082850041425020708
sV\u091f\u092c
p1413
F1.0836785418392709
sV\u0938\u094b\u091a\u0924\u0947
p1414
F0.00082850041425020708
sV\u0922\u0902\u0917
p1415
F0.0016570008285004142
sV\u0935\u0915\u094d\u0924\u093e\u0913\u0902
p1416
F0.00076452599388379206
sV\u092a\u0924\u094d\u0930\u093f\u0915\u093e
p1417
F0.0082850041425020712
sV\u0915\u0920\u094b\u0930
p1418
F0.00076452599388379206
sV(6
p1419
F0.00076452599388379206
sV\u0906\u0932\u0938\u0940
p1420
F0.00076452599388379206
sV\u0936\u093f\u092a\u094d\u092a\u093f\u0902\u0917
p1421
F3.251035625517813
sV\u0905\u0932\u092c\u093e\u092e\u093e
p1422
F0.00082850041425020708
sV\u092e\u0941\u0901\u0939
p1423
F0.00082850041425020708
sV\u0905\u092d\u093f\u092f\u094b\u0915\u094d\u0924\u093e
p1424
F0.0015290519877675841
sV\u091f\u0941\u0915\u095c\u0947
p1425
F1.0836785418392709
sV\u092f\u0939\u0938\u0947
p1426
F0.00082850041425020708
sV\u0938\u0941\u0917\u0902\u0927
p1427
F0.00082850041425020708
sV\u092c\u0947\u091a\u0928\u0947
p1428
F0.00076452599388379206
sV\u092c\u094d\u0930\u093e\u0902\u0921\u094d\u0938
p1429
F0.00082850041425020708
sV\u091c\u094b\u0928\u093e\u0925\u0928
p1430
F0.00082850041425020708
sV\u091c\u0942\u0924\u093e
p1431
F2.1673570836785419
sV-
F1.0836785418392709
sV\u0905\u091f\u0942\u091f
p1432
F0.00076452599388379206
sV\u0930\u093e\u0936\u093f
p1433
F1.0836785418392709
sV\u0917\u0941\u0928\u0917\u0941\u0928\u093e
p1434
F0.00076452599388379206
sV\u0915\u0930\u0940\u092c
p1435
F0.00076452599388379206
sV\u0935\u093f\u0902\u0921\u094b
p1436
F0.00076452599388379206
sV$
F1.0836785418392709
sV\u0928\u093f\u0915\u093e\u0932\u0928\u093e
p1437
F1.0836785418392709
sV\u0906\u0935\u0947\u0926\u0928\u094b\u0902
p1438
F0.00082850041425020708
sV\u0906\u092f\u093e\u092e
p1439
F0.00076452599388379206
sV\u0909\u0924\u094d\u092a\u0928\u094d\u0928
p1440
F0.00076452599388379206
sV\u0939\u093e\u0907\u092a\u0930
p1441
F0.00082850041425020708
sV\u0930\u093e\u0938\u093e\u092f\u0928\u093f\u0915
p1442
F0.00076452599388379206
sV\u0926\u0930\u094d\u0926\u0928\u093e\u0915
p1443
F0.00076452599388379206
sV\u0938\u0902\u0917\u092e\u0930\u092e\u0930
p1444
F0.00076452599388379206
sV\u0938\u0902\u0938\u094d\u0915\u0930\u0923\u094b\u0902
p1445
F0.00076452599388379206
sV\u0938\u0915\u093e
p1446
F0.00076452599388379206
sV\u0906\u0927\u093e\u0930
p1447
F0.0022935779816513763
sV\u0905\u092a\u092e\u093e\u0928
p1448
F0.00082850041425020708
sV\u0935\u094d\u092f\u093e\u092f\u093e\u092e
p1449
F0.00082850041425020708
sV\u0926\u093e\u0935\u0947
p1450
F0.00076452599388379206
sV\u091c\u0942\u0924\u0947
p1451
F1.264291632145816
sV\u091c\u0940\u0935\u0928
p1452
F1.8455657492354742
sV\u091c\u093e\u0928\u0915\u093e\u0930\u0940
p1453
F0.0066280033140016566
sV\u092e\u0948\u0928\u0947
p1454
F0.0016570008285004142
sV\u0938\u094d\u0935\u091a\u094d\u091b
p1455
F0.0016570008285004142
sV\u0915
F0.00076452599388379206
sV\u0909\u0925\u0932\u0947
p1456
F0.0022935779816513763
sV\u0932\u0917\u093e\u0924\u093e\u0930
p1457
F1.0836785418392709
sV\u092e\u0930\u094d\u092f\u093e\u0926\u093f\u0924
p1458
F0.00082850041425020708
sV\u0928\u093f\u0930\u094d\u0926\u0947\u0936\u094b\u0902
p1459
F1.0836785418392709
sV\u0935\u093f\u091a\u093f\u0924\u094d\u0930
p1460
F0.00082850041425020708
sV\u0915\u093e\u092b\u0940
p1461
F1.8061309030654513
sV\u0936\u0940\u091f\u094d\u0938
p1462
F0.00082850041425020708
sV\u0938\u0936\u0915\u094d\u0924\u093f\u0915\u0930\u0923
p1463
F0.00076452599388379206
sV\u092c\u0940\u090f\u0932-4c
p1464
F0.00076452599388379206
sV\u091b\u0935\u093f
p1465
F0.00076452599388379206
sV\u0926\u0930\u0905\u0938\u0932
p1466
F0.00076452599388379206
sV\u0916\u0917\u094b\u0932
p1467
F0.00076452599388379206
sV\u0906\u0938\u093e\u0928
p1468
F6.7729908864954433
sV\u0905\u0902\u0927\u0947\u0930\u0947
p1469
F0.00076452599388379206
sV\u0905\u0932\u093e\u0935\u093e
p1470
F1.8455657492354742
sV\u091f\u093f\u090f\u0938\u094d\u091f\u094b
p1471
F0.00076452599388379206
sV\u0905\u092e\u0947\u091c\u0928
p1472
F0.00076452599388379206
sV\u0907\u0915\u091f\u094d\u0920\u093e
p1473
F0.00082850041425020708
sV\u092e\u093e\u0928\u0915
p1474
F0.00076452599388379206
sV\u091c\u093e\u0939\u093f\u0930
p1475
F0.00082850041425020708
sV\u0913\u0930\u0917\u0947\u0928\u093f\u0915
p1476
F0.00082850041425020708
sV\u092e\u093e\u0928\u0935
p1477
F0.00082850041425020708
sV\u0918\u091f\u093f\u092f\u093e
p1478
F0.0038226299694189602
sV\u0938\u0942\u0916\u0947
p1479
F0.00082850041425020708
sV\u091f\u094b\u0902\u0938
p1480
F0.00082850041425020708
sV\u0935\u093f\u0936\u094d\u0935\u0938\u094d\u0924\u0924\u093e
p1481
F0.00076452599388379206
sV\u0916\u0930\u094d\u091a\u0940\u0932\u093e
p1482
F0.00076452599388379206
sV\u0905\u092a\u094d\u0930\u0938\u0928\u094d\u0928
p1483
F0.00076452599388379206
sV\u0928\u0947\u0932
p1484
F0.00082850041425020708
sV\u0926\u0943\u0937\u094d\u091f\u093f
p1485
F0.00076452599388379206
sV\u0939\u0901\u0938\u0947
p1486
F0.00076452599388379206
sV\u0928\u093f\u0930\u093e\u0936\u093e\u091c\u0928\u0915
p1487
F0.0038226299694189602
sV\u0939\u0901\u0938\u0940
p1488
F0.00076452599388379206
sV\u0938\u0902\u0926\u0947\u0939
p1489
F0.00076452599388379206
sV\u091a\u0949\u0915\u0932\u0947\u091f
p1490
F0.00082850041425020708
sV\u0906\u0928\u0902\u0926\u092e\u092f
p1491
F0.00082850041425020708
sV\u0907\u0915\u093e\u0908
p1492
F0.00076452599388379206
sV\u0938\u0930\u0917\u092e
p1493
F0.00076452599388379206
sV\u0938\u092b\u0947\u0926
p1494
F0.00076452599388379206
sV\u092c\u0941\u0924\u094d\u0924\u094d\u0915\u094d\u0930\u0941\u0938\u094d\u0924
p1495
F0.00076452599388379206
sV\u0921\u093f\u091c\u093f\u091f\u0932
p1496
F4.6139143730886856
sV\u0915\u0941\u0932
p1497
F0.00082850041425020708
sV\u0935\u093e\u0932\u094d\u0932\u094d\u092e\u093e\u0930\u094d\u091f
p1498
F0.00076452599388379206
sV\u0926\u093e\u0928\u0947\u0926\u093e\u0930
p1499
F0.00076452599388379206
sV\u091c\u0941\u0924\u0947
p1500
F0.00082850041425020708
sV\u0938\u092c\u0915
p1501
F0.00076452599388379206
sV\u0938\u0948\u0902\u0921\u0932
p1502
F0.00082850041425020708
sV\u0915\u093e\u0935\u094d\u092f
p1503
F0.00082850041425020708
sV\u0906\u0926\u0930\u094d\u0936
p1504
F0.00076452599388379206
sV\u0916\u0930\u0940\u0926\u0928\u093e
p1505
F1.8455657492354742
sV\u0905\u092e\u0947\u095b\u0928
p1506
F0.0030581039755351682
sV\u0939\u0902\u0938\u092e\u0941\u0916
p1507
F0.00076452599388379206
sV\u0916\u0930\u0940\u0926\u0928\u0947
p1508
F2.7683486238532113
sV\u092c\u0928\u093e\u0928\u0947
p1509
F0.0016570008285004142
sV\u0906\u0936\u093e
p1510
F0.00082850041425020708
sV\u092c\u091c\u091f
p1511
F0.00076452599388379206
sV\u091f\u093f\u092a:
p1512
F0.00082850041425020708
sV\u0905\u0902\u0924\u0930\u093f\u0915\u094d\u0937
p1513
F0.00076452599388379206
sV\u0926\u0947\u0917\u093e
p1514
F0.00076452599388379206
sV\u0938\u0915\u093e\u0930\u093e\u0924\u094d\u092e\u0915
p1515
F1.0836785418392709
sV\u0906\u0930\u094b\u092a
p1516
F0.0015290519877675841
sV\u092e\u0948\u0902\u0928\u0947
p1517
F1.5647187873952932
sV\u0935\u093f\u0936\u0947\u0937
p1518
F6.502071251035626
sV\u092e\u093e\u0907\u0915\u094d\u0930\u094b\u0938\u0949\u092b\u094d\u091f
p1519
F0.00082850041425020708
sV2006
p1520
F0.00082850041425020708
sV2007
p1521
F0.00076452599388379206
sV\u0932\u0917\u0947\u0917\u0940
p1522
F0.00082850041425020708
sV\u092d\u0940)
p1523
F0.00076452599388379206
sV\u0935\u093e\u0930\u0902\u091f\u0940
p1524
F0.00076452599388379206
sV\u0928\u0940\u0932\u0947
p1525
F0.00076452599388379206
sV\u0936\u093e\u092f\u0926
p1526
F2.1673570836785419
sV\u0932\u0947\u0928
p1527
F0.00082850041425020708
sV\u0905\u091a\u094d\u091b\u093e
p1528
F4.7587622924246249
sV\u0939\u094b\u0917\u093e
p1529
F3.6911314984709485
sV\u0924\u094d\u0930\u093e\u0938\u0926\u0940
p1530
F0.00082850041425020708
sV\u0932\u0947\u0916
p1531
F0.0024855012427506215
sV\u0930\u0939\u0924\u093e
p1532
F2.7683486238532113
sV\u091c\u094b\u092f\u093e
p1533
F0.00082850041425020708
sV\u092c\u0947\u0939\u0926
p1534
F1.0836785418392709
sV\u0907\u0928\u0938\u0947
p1535
F0.00082850041425020708
sV\u091a\u093f\u092a\u093e\u0939\u0924
p1536
F0.00082850041425020708
sV\u0932\u0947\u0902
p1537
F0.00082850041425020708
sV\u091a\u0932\u0924\u0947
p1538
F0.00076452599388379206
sV\u091a\u0932\u0924\u0940
p1539
F1.8455657492354742
sV\u092f\u093e\u0926\u0917\u093e\u0930
p1540
F0.00082850041425020708
sV\u092e\u093e\u0927\u094d\u092f\u092e
p1541
F0.0015290519877675841
sV\u0915\u0947\u092c\u0932
p1542
F0.00076452599388379206
sV\u0918\u0902\u091f\u0947
p1543
F0.0038226299694189602
sV\u0932\u0917\u0928\u0947
p1544
F0.00082850041425020708
sV\u0905\u0927\u093f\u0915
p1545
F1.4995221712538227
sV\u092c\u091c\u093e\u092f
p1546
F0.00076452599388379206
sV\u091a\u0932\u0924\u093e
p1547
F0.0016570008285004142
sV\u0938\u0941\u0927\u093e\u0930
p1548
F0.00076452599388379206
sV\u092c\u091a\u093e\u0928\u0947
p1549
F1.0836785418392709
sV\u0925\u093e?
p1550
F0.00076452599388379206
sV\u0930\u0939\u0924\u0940
p1551
F0.00076452599388379206
sV\u0935\u093f\u0936\u094d\u0935
p1552
F0.00082850041425020708
sV\u0939\u094b\u0917\u0940
p1553
F0.00076452599388379206
sV\u0905\u091a\u094d\u091b\u0940
p1554
F7.8024855012427503
sV\u0915\u0942\u092a\u0930
p1555
F0.00082850041425020708
sV\u0905\u091a\u094d\u091b\u0947
p1556
F4.3347141673570837
sV\u0909\u0926\u093e\u0939\u0930\u0923
p1557
F0.00076452599388379206
sV\u0938\u0902\u0917\u0920\u093f\u0924
p1558
F0.00082850041425020708
sV\u0935\u093e\u0938\u093f\u092f\u094b\u0902
p1559
F0.00076452599388379206
sV\u0939\u0947\u0932\u092e\u0947\u091f
p1560
F0.00082850041425020708
sV\u091a\u0940\u091c\u0947\u0902
p1561
F0.00076452599388379206
sV\u0915\u0942\u092a\u0928
p1562
F0.00076452599388379206
sV\u0917\u095b\u0947\u092c\u094b
p1563
F0.00082850041425020708
sV\u0938\u094d\u0925\u093e\u092a\u093f\u0924
p1564
F1.6255178127589065
sV\u091f\u0941\u0915\u0921\u093c\u0940
p1565
F0.00082850041425020708
sV\u091c\u093e\u090f\u0917\u0940
p1566
F0.00082850041425020708
sV\u0938\u092e\u0940\u0915\u094d\u0937\u093e\u090f\u0901
p1567
F0.00076452599388379206
sV\u092a\u094d\u0930\u092d\u093e\u0935\u094b\u0902
p1568
F0.00076452599388379206
sV\u0907\u0932\u0947\u0915\u094d\u091f\u094d\u0930\u093f\u0915\u0932
p1569
F0.00076452599388379206
sV\u0917\u094d\u0930\u0947\u0921
p1570
F0.00076452599388379206
sV\u0928\u0940\u0924\u093f
p1571
F1.0836785418392709
sV\u0905\u0938\u094d\u0924\u093f\u0924\u094d\u0935\u0939\u0940\u0928
p1572
F0.00076452599388379206
sV\u0906\u0902\u0916
p1573
F1.0836785418392709
sV\u090f\u0939\u094d\u0939\u094d\u0939
p1574
F0.00076452599388379206
sV\u0939\u0935\u093e
p1575
F1.0836785418392709
sV\u0905\u0938\u0941\u0935\u093f\u0927\u093e\u091c\u0928\u0915
p1576
F0.0015290519877675841
sV\u0926\u093e\u092f\u0915
p1577
F0.0066280033140016566
sV\u0932\u0942\u0901\u0917\u093e-
p1578
F0.00076452599388379206
sV\u091a\u092e\u095c\u0947
p1579
F1.0836785418392709
sV\u092c\u0926\u0932\u0947
p1580
F2.1673570836785419
sV\u0905\u0928\u0941\u0938\u093e\u0930
p1581
F0.00076452599388379206
sV\u0938\u0902\u0935\u0947\u0926\u0928\u0936\u0940\u0932
p1582
F0.00076452599388379206
sV\u092c\u094d\u0930\u0940\u0932\u094d\u0932\u0940\u0902\u0938
p1583
F0.00082850041425020708
sV\u0928\u0915\u093e\u0930\u093e\u0924\u094d\u092e\u0915
p1584
F0.00076452599388379206
sV\u0913\u0935\u0930
p1585
F0.00076452599388379206
sV\u092a\u094d\u0930\u0926\u0930\u094d\u0936\u0928
p1586
F0.0016570008285004142
sV\u0932\u094b\u091f\u093e
p1587
F0.00076452599388379206
sV\u0935\u093f\u0936\u0947\u0937\u091c\u094d\u091e
p1588
F0.00082850041425020708
sV\u092e\u0942\u0932
p1589
F1.8455657492354742
sV31
p1590
F1.0836785418392709
sV\u0935\u093e\u092a\u0938
p1591
F7.3822629969418969
sV37
p1592
F0.00076452599388379206
sV35
p1593
F0.00076452599388379206
sV\u0915\u0930\u0947\u0902\u0917\u0947;
p1594
F0.00076452599388379206
sV\u091c\u093e\u090f\u0917\u093e
p1595
F1.3841743119266057
sV\u0925\u094d\u0930\u093f\u0932\u0930
p1596
F0.00082850041425020708
sV\u0915\u0941\u0924\u094d\u0924\u0947
p1597
F0.00076452599388379206
sV\u0905\u0902\u0917\u0941\u0932\u0940
p1598
F0.00076452599388379206
sV\u0930\u0939\u093e
p1599
F1.7803290330216597
sV\u0915\u0939\u093e\u0928\u0940
p1600
F0.0030581039755351682
sV\u0938\u092a\u094d\u0924\u093e\u0939
p1601
F0.0038226299694189602
sV\u0938\u094d\u092e\u093f\u0925
p1602
F0.00082850041425020708
sV\u0905\u0924\u0930\u093f\u0915\u094d\u0924
p1603
F0.00082850041425020708
sV\u0906\u0928\u0902\u0926
p1604
F0.0049710024855012429
sV\u092a\u0942\u0930\u093e
p1605
F0.0024855012427506215
sV\u0906\u092f\u094b\u091c\u093f\u0924
p1606
F0.00082850041425020708
sV\u0930\u0947\u0905\u0915\u094d\u091f\u0947\u0921
p1607
F0.00076452599388379206
sV\u0938\u0902\u0915\u0947\u0924\u094b\u0902
p1608
F0.00076452599388379206
sV\u092e\u0947\u0930\u093e
p1609
F3.4677713338856666
sV\u0936\u0948\u0915\u094d\u0937\u093f\u0915
p1610
F0.00082850041425020708
sV\u092e\u0947\u0930\u0940
p1611
F2.6317907444668012
sV\u0938\u093f\u0902\u0917\u0941\u0932\u0930
p1612
F0.00076452599388379206
sV\u0938\u092e\u0940\u0915\u094d\u0937\u0915
p1613
F3.6911314984709485
sV\u092e\u0947\u0930\u0947
p1614
F1.3386617281543935
sV\u092a\u0942\u0930\u0940
p1615
F1.3182612494539099
sV\u092a\u0942\u0930\u0947
p1616
F1.0836785418392709
sV\u0938\u094d\u0915\u0948\u0928\u0930
p1617
F0.0016570008285004142
sV\u092b\u0942\u0932\u0926\u093e\u0928
p1618
F0.00082850041425020708
sV\u091f\u0940\u0935\u0940
p1619
F1.0836785418392709
sV\u0935\u0943\u0924\u094d\u0924\u091a\u093f\u0924\u094d\u0930
p1620
F0.00076452599388379206
sV\u0938\u092e\u0940\u0915\u094d\u0937\u093e
p1621
F3.6911314984709485
sV\u0938\u091f\u0940\u0915
p1622
F4.3347141673570837
sV\u0930\u0939\u0940
p1623
F1.3545981772990887
sV\u0930\u0939\u0947
p1624
F5.0753058103975537
sV\u0905\u0902\u0924\u0924\u0903
p1625
F2.1673570836785419
sV\u0915\u093e\u0930\u094d\u092f\u0936\u0940\u0932\u0924\u093e
p1626
F0.00082850041425020708
sV\u0926\u0947\u0902:
p1627
F0.00076452599388379206
sV\u092b\u0930\u094d\u0915
p1628
F1.8455657492354742
sV\u0938\u0947\u091f
p1629
F7.5857497928748971
sV\u0915\u0939\u094b
p1630
F0.00076452599388379206
sV\u0935\u093f\u091a\u093e\u0930\u0936\u0940\u0932
p1631
F0.00082850041425020708
sV\u092e\u0947\u0939\u0902\u0917\u093e
p1632
F0.00082850041425020708
sV\u092b\u0930\u094d\u0936
p1633
F0.00082850041425020708
sV\u092c\u0924\u094d\u0924\u0940
p1634
F0.00076452599388379206
sV\u0905\u092e\u0940\u0930
p1635
F0.00076452599388379206
sV\u0915\u0939\u0942\u0901
p1636
F0.00082850041425020708
sV\u092e\u091c\u0947\u0926\u093e\u0930
p1637
F0.0066280033140016566
sV\u0916\u0947\u0932\u0924\u0947
p1638
F0.00082850041425020708
sV\u092c\u093f\u0932\u0915\u0941\u0932
p1639
F1.0836785418392709
sV\u0909\u0924\u094d\u092a\u093e\u0926
p1640
F2.2973985086992545
sV\u0905\u0928\u0941\u0915\u0942\u0932\u0915
p1641
F0.00076452599388379206
sV\u091f\u0930\u094d\u092c\u094b
p1642
F0.00076452599388379206
sV\u0906\u0928\u0947
p1643
F0.00082850041425020708
sV\u092c\u0930\u093e\u092c\u0930
p1644
F0.00082850041425020708
sV\u092c\u0939\u0941\u092e\u0941\u0916\u0940
p1645
F0.00082850041425020708
sV\u0915\u0939\u093e
p1646
F1.0836785418392709
sV\u092e\u0930\u094d\u091c
p1647
F0.00076452599388379206
sV\u092a\u093e\u0917\u0932
p1648
F0.00082850041425020708
sV\u0935\u093f\u0915\u0943\u0924
p1649
F0.00076452599388379206
sV\u0932\u0949\u0928
p1650
F1.0836785418392709
sV\u0938\u0902\u0915\u0941\u0932
p1651
F0.00082850041425020708
sV\u0905\u0927\u093f\u092e\u0942\u0932\u094d\u092f
p1652
F0.00076452599388379206
sV\u0938\u0921\u093c\u0915\u094b\u0902
p1653
F0.00082850041425020708
sV\u0915\u094d\u0937\u0947\u0924\u094d\u0930
p1654
F0.0024855012427506215
sV\u092c\u0930\u094d\u092c\u093e\u0926
p1655
F0.0084097859327217118
sV\u0906\u0936\u094d\u0935\u0938\u094d\u0924
p1656
F0.00076452599388379206
sV\u092e\u093f\u0932\u0924\u093e
p1657
F1.8455657492354742
sV\u0938\u094d\u0915\u094d\u0930\u093f\u092a\u094d\u091f
p1658
F0.0015290519877675841
sV\u091c\u0928\u0935\u0930\u0940
p1659
F1.8455657492354742
sV\u0924\u0938\u094d\u0935\u0940\u0930\u094b\u0902
p1660
F0.00082850041425020708
sV\u091a\u0902\u0926\u0935\u093e
p1661
F0.00082850041425020708
sV\u091a\u0932\u093e\u0924\u0947
p1662
F0.00076452599388379206
sV\u0909\u092a\u0938\u0902\u0939\u093e\u0930
p1663
F0.00076452599388379206
sV\u0926\u0930\u094d\u0926
p1664
F0.0015290519877675841
sV\u091c\u094b\u095c\u0940
p1665
F0.00082850041425020708
sV\u0936\u093e\u0902\u0924\u093f
p1666
F0.00076452599388379206
sV\u0911\u092a\u0930\u0947\u091f\u093f\u0902\u0917
p1667
F0.00082850041425020708
sV\u0911\u0921\u093f\u092f\u094b
p1668
F0.00076452599388379206
sV\u091a\u0932\u093e\u0924\u093e
p1669
F0.00082850041425020708
sV\u0935\u094d\u092f\u093e\u0935\u0939\u093e\u0930\u093f\u0915
p1670
F1.0836785418392709
sV\u0905\u092a\u094d\u0930\u093e\u0938\u0902\u0917\u093f\u0915
p1671
F0.00076452599388379206
sV\u0938\u094d\u092a\u0937\u094d\u091f
p1672
F1.0836785418392709
sV\u092c\u0928\u093e\u092f\u093e
p1673
F1.6148700305810397
sV\u0915\u0939\u093e\u0928\u093f\u092f\u094b\u0902
p1674
F0.00082850041425020708
sV\u0926\u0947\u0936
p1675
F0.00076452599388379206
sV\u0938\u094d\u0915\u0940\u0907\u0902\u0917
p1676
F0.00076452599388379206
sV\u0915\u093e\u092e\u0941\u0915
p1677
F0.00082850041425020708
sV\u0921\u094d\u0930\u093e\u0907\u0935\u0930
p1678
F0.00082850041425020708
sV\u0926\u093f\u0928
p1679
F5.4183927091963549
sV\u0930\u0947\u0902\u091c
p1680
F1.0836785418392709
sV\u092a\u094d\u0930\u0924\u093f\u0915\u094d\u0930\u093f\u092f\u093e
p1681
F0.00082850041425020708
sV\u0939\u093e\u0932\u093e\u0902\u0915\u093f
p1682
F0.0024855012427506215
sV\u0935\u094d\u092f\u093e\u092a\u093e\u0930
p1683
F0.00082850041425020708
sV\u0926\u093f\u0932
p1684
F0.00082850041425020708
sV\u0924\u0947\u095b
p1685
F0.00082850041425020708
sV80
p1686
F0.00082850041425020708
sV87
p1687
F0.00076452599388379206
sV\u0910\u0928\u094d\u091f\u0947\u0928\u093e
p1688
F0.00076452599388379206
sV\u0938\u094d\u091f\u094b\u0930
p1689
F0.00082850041425020708
sV'
F0.00076452599388379206
sV\u0935\u093f\u0915\u094d\u0930\u0947\u0924\u093e
p1690
F1.0836785418392709
sV\u0926\u093f\u090f
p1691
F0.00076452599388379206
sV\u091c\u0942\u0924\u094b\u0902
p1692
F4.3347141673570837
sV\u0915\u0930\u0947\u0902
p1693
F2.1673570836785419
sV\u092a\u094d\u0930\u092d\u093e\u0935\u0936\u093e\u0932\u0940
p1694
F0.00082850041425020708
sV\u092a\u0947\u0928\u0932
p1695
F0.00082850041425020708
sV\u0926\u0930\u094d\u0936\u093e\u0924\u093e
p1696
F0.00076452599388379206
sV\u0935\u093f\u091c\u094d\u091e\u093e\u0928
p1697
F1.8455657492354742
sV\u092b\u0949\u0930\u094d\u091a\u094d\u092f\u0942\u0928
p1698
F0.00082850041425020708
sV\u0915\u0932\u094d\u092a\u0928\u093e\u0936\u0940\u0932
p1699
F0.00082850041425020708
sV\u0938\u094d\u0935\u0924\u0902\u0924\u094d\u0930
p1700
F0.00082850041425020708
sV\u0928\u093e\u0916\u0941\u0936
p1701
F0.0015290519877675841
sV\u0917\u0947\u091c
p1702
F0.0024855012427506215
sV\u0917\u0947\u091f
p1703
F0.00082850041425020708
sV\u0909\u0928\u094d\u0939\u0947\u0902
p1704
F2.1673570836785419
sV\u0909\u0928\u094d\u0928\u0924
p1705
F0.00082850041425020708
sV\u0939\u094b\u0928\u0939\u093e\u0930
p1706
F0.00076452599388379206
sV\u0935\u0930\u094d\u0923\u094b\u0902
p1707
F0.00076452599388379206
sV\u0930\u0948\u0915\u0947\u091f
p1708
F0.00082850041425020708
sV\u0917\u0947\u092e
p1709
F0.00076452599388379206
sV\u092c\u0932\u094d\u0915\u093f
p1710
F1.0836785418392709
sV\u092b\u094d\u0932\u0947\u0930\u0938
p1711
F0.00082850041425020708
sV\u0936\u093f\u0915\u0902\u091c\u093e
p1712
F0.00076452599388379206
sV\u092e\u093f\u0925\u094d\u092f\u093e\u092d\u093f\u092e\u093e\u0928\u0940
p1713
F0.00076452599388379206
sV\u0926\u0947\u0924\u093e
p1714
F2.889809444904722
sV\u0914\u0930
p1715
F2.2757249378624689
sV\u0906\u0930\u094d\u0921\u0930
p1716
F0.00082850041425020708
sV\u0930\u0916\u0924\u093e
p1717
F0.00076452599388379206
sV\u0926\u093f\u0916\u0924\u093e
p1718
F0.00076452599388379206
sV\u0926\u0942\u0930
p1719
F1.8455657492354742
sV\u0938\u094c\u0926\u093e
p1720
F6.502071251035626
sV\u0915\u092a\u095c\u0947
p1721
F1.8455657492354742
sV\u092a\u0939\u0947\u0932\u0940
p1722
F1.0836785418392709
sV\u0906\u090f\u0917\u093e
p1723
F0.00076452599388379206
sV\u0938\u094d\u0935\u0930\u0942\u092a
p1724
F0.00076452599388379206
sV\u0959\u0930\u093e\u092c
p1725
F0.00076452599388379206
sV\u091c\u094d\u092f\u093e\u0926\u093e
p1726
F1.8061309030654513
sV\u0932\u093e\u0917\u0942
p1727
F0.00082850041425020708
sV\u0905\u092a\u094d\u0930\u092d\u093e\u0935\u0940
p1728
F0.00076452599388379206
sV\u0915\u092a\u095c\u093e
p1729
F0.0015290519877675841
sV\u092c\u0939\u0928
p1730
F0.0016570008285004142
sV\u0938\u094c\u0926\u0947
p1731
F0.00082850041425020708
sV\u092c\u0928\u0947\u0917\u093e
p1732
F0.00082850041425020708
sV\u0905\u0928\u0941\u092d\u0935
p1733
F0.0015290519877675841
sV\u092a\u094d\u0930\u0938\u0928\u094d\u0928
p1734
F0.00082850041425020708
sV\u0906\u0930\u093e\u092e\u0926\u093e\u092f\u0915
p1735
F8.6694283347141674
sV\u0917\u0941\u0923\u0935\u0924\u094d\u0924\u093e
p1736
F1.0313455657492354
sV\u091c\u093e\u0930\u0940
p1737
F0.0015290519877675841
sV\u0917\u093f\u091c\u094d\u092e\u094b
p1738
F0.00082850041425020708
sV\u0915\u093f\u0930\u0923\u094b\u0902
p1739
F0.00076452599388379206
sV\u091c\u0939\u093e\u091c
p1740
F0.00076452599388379206
sV\u0905\u0936\u094d\u0932\u0940\u0932
p1741
F0.00076452599388379206
sV\u0932\u0947\u091c\u0930
p1742
F0.00076452599388379206
sV\u0926\u0947\u0916\u0924\u0947
p1743
F0.0015290519877675841
sV\u0915\u0947\u0902\u0926\u094d\u0930\u093f\u0924
p1744
F0.00076452599388379206
sV\u092c\u093f\u0915\u094d\u0930\u0940
p1745
F0.00082850041425020708
sV\u092e\u0939\u0940\u0928\u0947
p1746
F2.7683486238532113
sV\u092f\u0941\u0915\u094d\u0924\u093f\u092f\u093e\u0901
p1747
F0.00082850041425020708
sV\u092e\u0926\u0926
p1748
F1.0836785418392709
sV\u0915\u093e\u0917\u091c
p1749
F0.00076452599388379206
sV\u092b\u0940\u0915\u0940
p1750
F0.00076452599388379206
sV\u0935\u094d\u092f\u0915\u094d\u0924\u093f\u0924\u094d\u0935
p1751
F0.00082850041425020708
sV\u091c\u093e\u0913
p1752
F1.0836785418392709
sV\u091c\u093e\u090f
p1753
F0.00082850041425020708
sV\u0930\u093f\u0915\u0949\u0930\u094d\u0921\u093f\u0902\u0917
p1754
F0.00076452599388379206
sV\u0915\u094b
p1755
F1.2934227757436458
sV\u091a\u093e\u0939\u0947
p1756
F0.00082850041425020708
sV\u0915\u0947
p1757
F1.1623814526991063
sV\u0910-95
p1758
F0.00076452599388379206
sV\u0905\u0926\u094d\u0935\u093f\u0924\u0940\u092f
p1759
F0.00082850041425020708
sV\u0905\u0935\u093f\u0915\u0938\u093f\u0924
p1760
F0.00076452599388379206
sV\u0928\u092e\u0940
p1761
F0.00082850041425020708
sV\u0915\u093f
p1762
F1.1278457356439007
sV\u0915\u093e
p1763
F1.8167552024952485
sV\u0915\u0939
p1764
F1.0836785418392709
sV\u092e\u0941\u0938\u0940\u092c\u0924
p1765
F0.00076452599388379206
sV\u092c\u0928\u0928\u0947
p1766
F0.0016570008285004142
sV\u092b\u093e\u0902\u0938\u0940
p1767
F0.00076452599388379206
sV\u0915\u0930
p1768
F1.1688583078491335
sV\u0915\u092c
p1769
F0.00076452599388379206
sV\u0915\u092e
p1770
F12.918960244648318
sV\u092d\u093e\u0930\u0940
p1771
F3.251035625517813
sV\u0915\u092a
p1772
F1.0836785418392709
sV\u092b\u094b\u0902\u091f
p1773
F0.00076452599388379206
sV\u092a\u0941\u0938\u094d\u0924\u0915
p1774
F0.0030581039755351682
sV\u0939\u092e\u0947\u0902
p1775
F0.0024855012427506215
sV\u0916\u0930\u094b\u0902\u091a
p1776
F0.00076452599388379206
sV\u0928\u093f\u092a\u091f\u0928\u0947
p1777
F0.00076452599388379206
sV\u0938\u0941\u0938\u094d\u0924
p1778
F0.0045871559633027525
sV\u0915\u0908
p1779
F1.264291632145816
sV\u0905\u0902\u0926\u0930
p1780
F0.0015290519877675841
sV\u0927\u094b
p1781
F0.00082850041425020708
sV\u091c\u0948\u0938\u0940
p1782
F0.0016570008285004142
sV\u0928\u093e\u0907\u0938
p1783
F0.00082850041425020708
sV\u091c\u0948\u0938\u0947
p1784
F1.8455657492354742
sV\u092e\u091c\u093c\u093e
p1785
F0.00082850041425020708
sV\u0938\u0947\u0902\u0938\u0930
p1786
F0.0015290519877675841
sV\u0915\u0932\u0947\u0915\u094d\u091f\u0930
p1787
F0.00076452599388379206
sV\u0926\u093f\u0936\u093e\u0913\u0902
p1788
F0.00082850041425020708
sV\u0926\u092f\u0928\u0940\u092f
p1789
F0.00076452599388379206
sV\u0936\u093f\u092a\u093f\u0902\u0917
p1790
F7.5857497928748971
sV\u092a\u094d\u092f\u093e\u0930
p1791
F11.198011599005799
sV\u0915\u092e\u091c\u094b\u0930
p1792
F1.0836785418392709
sV\u0938\u0942\u091a\u0940
p1793
F0.00076452599388379206
sV\u092a\u093f\u091b\u0932\u0947
p1794
F1.0836785418392709
sV\u0918\u0930\u094b\u0902
p1795
F0.00076452599388379206
sV\u0915\u0939\u0940\u0902
p1796
F0.00082850041425020708
sV\u091c\u093f\u0938\u0915\u094b
p1797
F0.00082850041425020708
sV12V
p1798
F0.00082850041425020708
sV\u091c\u093f\u0938
p1799
F0.00082850041425020708
sV\u091c\u093f\u0938\u0915\u0940
p1800
F0.00082850041425020708
sV\u0905\u0902\u0917\u0942\u0930
p1801
F0.00082850041425020708
sV\u0938\u0940\u0921\u0940
p1802
F8.3050458715596331
sV\u092b\u093e\u092f\u0930\u0935\u093e\u092f\u0930
p1803
F0.00076452599388379206
sV\u0916\u0941\u0936\u094d\u092c\u094d\u0935\u0941
p1804
F0.00082850041425020708
sV\u0915\u094d\u0930\u092e
p1805
F0.00082850041425020708
sV\u0917\u0942\u0926\u093e
p1806
F0.00076452599388379206
sV\u0915\u091a\u0930\u093e
p1807
F0.00076452599388379206
sV\u0936\u0941\u0930\u0941\u0906\u0924
p1808
F0.00082850041425020708
sV\u0932\u093f\u0938\u094d\u091f\u093f\u0902\u0917
p1809
F0.00076452599388379206
sV\u0938\u094b\u091a
p1810
F1.0836785418392709
sV\u092a\u094d\u0930\u092f\u094b\u0917
p1811
F4.3347141673570837
sV\u0905\u092d\u093e\u0935
p1812
F0.0016570008285004142
sV\u092a\u095c\u0924\u093e
p1813
F0.00082850041425020708
sV\u091c\u0948\u0938\u093e
p1814
F1.0836785418392709
sV\u0938\u092c
p1815
F1.5171499585749795
sV\u092b\u094d\u0930\u093e\u0902\u0938\u093f\u0938\u094d\u0915\u094b
p1816
F0.00076452599388379206
sV\u0928\u0939\u0940\u0902
p1817
F4.5797372295843246
sV\u092e\u0948\u0915\u0947\u0928\u093f\u0915\u0932
p1818
F0.00076452599388379206
sV\u092a\u0947\u0902\u0938\u093f\u0932
p1819
F0.00082850041425020708
sV\u0916\u0930\u0940\u0926\u093e
p1820
F1.1073394495412845
sV\u0938\u0930
p1821
F0.00076452599388379206
sV\u092e\u0940\u0932
p1822
F0.00076452599388379206
sV\u0924\u093e\u0932\u093f\u0915\u093e
p1823
F0.00076452599388379206
sV\u0906\u0932\u0942
p1824
F0.00082850041425020708
sV\u0930\u0940\u092e\u0947\u0915
p1825
F0.00076452599388379206
sV\u092a\u0939\u0947\u0928\u0928\u093e
p1826
F0.00082850041425020708
sV\u0938\u091a
p1827
F2.1673570836785419
sV\u0930\u0939\u0928\u0947
p1828
F0.00082850041425020708
sV\u092d\u093e\u0917
p1829
F0.00076452599388379206
sV\u0930\u0939\u0928\u093e
p1830
F0.00082850041425020708
sV\u0916\u094b\u091c
p1831
F0.00076452599388379206
sV\u0916\u093f\u0932\u093e\u0921\u0940
p1832
F0.00076452599388379206
sV\u092a\u093f\u0902\u0915
p1833
F0.00082850041425020708
sV\u0927\u0928\u094d\u092f\u0935\u093e\u0926
p1834
F0.0041425020712510356
sV\u0935\u093e\u0930\u094d\u0938
p1835
F0.00082850041425020708
sV\u0916\u0930\u0940\u0926\u094b
p1836
F0.0015290519877675841
sV\u0916\u0930\u0940\u0926\u0940
p1837
F3.6911314984709485
sV\u0938\u0940
p1838
F0.0016570008285004142
sV\u0938\u0947
p1839
F1.4102665955442566
sV\u092a\u094d\u0930\u0923\u093e\u0932\u0940
p1840
F0.0016570008285004142
sV\u092e\u093f\u092e\u093f\u092f\u093e
p1841
F0.00076452599388379206
sV\u0916\u0940\u0902\u091a\u0928\u0947
p1842
F0.00082850041425020708
sV\u0925\u0947:
p1843
F0.00076452599388379206
sV\u0906\u0915\u0943\u0924\u093f
p1844
F0.00076452599388379206
sV\u092a\u0939\u0932\u093e
p1845
F0.0015290519877675841
sV\u0915\u093e\u0932\u0947
p1846
F0.00076452599388379206
sV\u0915\u093e\u0932\u0940
p1847
F0.00076452599388379206
sV\u091c\u0930\u0942\u0930\u0940
p1848
F0.00082850041425020708
sV\u0917\u095c\u092c\u095c
p1849
F0.0015290519877675841
sV\u0917\u090f
p1850
F0.00076452599388379206
sV\u092e\u0942\u0932\u094d\u092f
p1851
F2.4382767191383596
sV\u092b\u094b\u0928
p1852
F0.0030581039755351682
sV\u0928\u093f\u0930\u093e\u0936\u093e
p1853
F0.0015290519877675841
sV\u092a\u094d\u0930\u0938\u0935
p1854
F0.0024855012427506215
sV\u092e\u0943\u0924
p1855
F0.00076452599388379206
sV\u092a\u094d\u0930\u093e\u092e\u093e\u0923\u093f\u0915
p1856
F0.00082850041425020708
sV\u0935\u0930\u094d\u0938\u094d\u091f
p1857
F0.00076452599388379206
sV\u0935\u093e\u0926\u0947
p1858
F0.00082850041425020708
sV\u091c\u0930\u0942\u0930\u0924
p1859
F0.00076452599388379206
sV\u0938\u0941\u0902\u0926\u0930
p1860
F0.0082850041425020712
sV\u0938\u094d\u0915\u094b\u092a\u0947
p1861
F0.00076452599388379206
sV\u0932\u093e\u092d
p1862
F0.00082850041425020708
sV\u0935\u093f\u0905\u0915\u094d\u0938
p1863
F0.00076452599388379206
sV\u0925\u094b\u0921\u093e
p1864
F0.0016570008285004142
sV\u0921\u0940
p1865
F0.00082850041425020708
sV\u0926\u0947?
p1866
F0.00076452599388379206
sV\u0915\u093f\u0930\u093e\u0928\u0947
p1867
F0.00076452599388379206
sV\u0921\u0949
p1868
F0.00082850041425020708
sV\u0925\u094b\u095c\u093e
p1869
F0.0016570008285004142
sV\u091c\u091f\u093f\u0932
p1870
F0.00076452599388379206
sV\u092c\u0948\u0917
p1871
F2.1673570836785419
sV\u092a\u0939\u0932\u0940
p1872
F0.00076452599388379206
sV\u092a\u0939\u0932\u0947
p1873
F1.0836785418392709
sV\u0938\u094d\u0935\u093e\u0917\u0924
p1874
F0.00076452599388379206
sV\u091c\u093f\u0938\u0938\u0947
p1875
F0.00082850041425020708
sV~
F0.00082850041425020708
sV\u0909\u0938\u0928\u0947
p1876
F0.00076452599388379206
sV\u0916\u092c\u0930\u0926\u093e\u0930
p1877
F0.00076452599388379206
sV\u0932\u0921\u093c\u0916\u0921\u093c\u093e\u0924\u0947
p1878
F0.00076452599388379206
sV\u0928\u092f\u0940
p1879
F0.00082850041425020708
sV\u092e\u0941\u0915\u094d\u0915\u0947\u092c\u093e\u091c\u0940
p1880
F0.00076452599388379206
sV\u092a\u093e\u0917\u0932\u092a\u0928
p1881
F0.00082850041425020708
sV\u092e\u093e\u0907\u0915\u094d\u0930\u094b
p1882
F0.00076452599388379206
sV\u092e\u0939\u0902\u0917\u0940
p1883
F0.00076452599388379206
sV\u0915\u093e\u0930\u094d\u0930\u0935\u093e\u0908
p1884
F0.0016570008285004142
sV\u092a\u093e\u0935\u0930
p1885
F0.00076452599388379206
sV\u092d\u093e\u0935\u0928\u093e\u090f
p1886
F0.00076452599388379206
sV\u0909\u0902\u0917\u0932\u093f\u092f\u094b\u0902
p1887
F0.00082850041425020708
sV\u091f\u093f\u0915\u0924\u0947
p1888
F0.00076452599388379206
sV\u0938\u0902\u092a\u093e\u0926\u093f\u0924
p1889
F0.00076452599388379206
sV\u0921\u093f\u0935\u090f\u0915\u094d\u0938
p1890
F0.00076452599388379206
sV\u0915\u0940\u092e\u0924\u0947
p1891
F0.00076452599388379206
sV\u091c\u0942\u091d
p1892
F0.00082850041425020708
sV\u092a\u0902\u092a
p1893
F0.00082850041425020708
sV\u0936\u0940\u0930\u094d\u0937
p1894
F1.0836785418392709
sV\u0938\u094d\u0930\u094b\u0924
p1895
F0.0016570008285004142
sV\u0909\u0926\u094d\u0927\u0930\u0923
p1896
F0.00076452599388379206
sV\u092e\u091c\u093e\u0915
p1897
F1.0836785418392709
sV\u092e\u0939\u0902\u0917\u093e
p1898
F0.0024855012427506215
sV\u0916\u0930\u0940\u0926\u0924\u0947
p1899
F0.00076452599388379206
sV\u092b\u093f\u0932\u094d\u092e\u094b\u0902
p1900
F3.251035625517813
sV\u092d\u093e\u0937\u093e
p1901
F0.00076452599388379206
sV\u091a\u0940\u0930?
p1902
F0.00076452599388379206
sV\u0938\u0940\u091f\u0947
p1903
F0.00082850041425020708
sV\u0928\u092f\u093e
p1904
F1.0836785418392709
sV\u0906\u0901\u0916\u094b\u0902
p1905
F0.0016570008285004142
sV\u0921\u093f\u091c\u094d\u0928\u0940
p1906
F0.00082850041425020708
sV\u092d\u0924\u0940\u091c\u093e
p1907
F0.00082850041425020708
sV\u0909\u0924\u094d\u092a\u093e\u0926\u094b\u0902
p1908
F1.6255178127589065
sV\u0915\u0939\u0924\u0947
p1909
F1.8455657492354742
sV\u0938\u0935\u093e\u0930\u0940
p1910
F0.00082850041425020708
sV\u0924\u0941\u0930\u0928\u094d\u0924
p1911
F0.00076452599388379206
sV\u0932\u093e
p1912
F0.00082850041425020708
sV\u0930\u093e\u091c\u0928\u0940\u0924\u093f\u0915
p1913
F0.00082850041425020708
sV\u0906\u092f\u0940
p1914
F0.00076452599388379206
sV\u091f\u0942\u091f
p1915
F0.0030581039755351682
sV\u0906\u092f\u0930
p1916
F0.00076452599388379206
sV\u0906\u092f\u093e
p1917
F1.1534785932721714
sV\u0932\u0947
p1918
F1.0836785418392709
sV\u092c\u0928\u0924\u093e
p1919
F0.00076452599388379206
sV\u092e\u093e\u0930\u0924\u093e
p1920
F0.00082850041425020708
sV\u0907\u0902\u091c\u0940\u0928\u093f\u092f\u0930\u093f\u0902\u0917
p1921
F0.0015290519877675841
sV\u0916\u093f\u0932\u093e\u095c\u0940
p1922
F0.0016570008285004142
sV\u0920\u0902\u0921\u093e
p1923
F0.00082850041425020708
sV\u092a\u093e\u0928\u0947
p1924
F1.0836785418392709
sV\u092a\u093e\u0928\u0940
p1925
F1.0836785418392709
sV\u0905\u0902\u0924\u0930
p1926
F0.00076452599388379206
sV\u092c\u0948\u0920\u0924\u093e
p1927
F0.0033140016570008283
sV\u0926\u0930\u094d\u092a\u0923
p1928
F0.00082850041425020708
sV\u0924\u0947\u095b\u0940
p1929
F0.00082850041425020708
sV0406040703000042032
p1930
F0.00076452599388379206
sV\u0936\u0930\u094d\u0924
p1931
F0.00076452599388379206
sV\u0930\u093f\u0938\u093e\u0935
p1932
F0.00076452599388379206
sV\u092d\u0930\u093e
p1933
F0.0038226299694189602
sV\u0930\u093f\u0915\u0949\u0930\u094d\u0921
p1934
F0.00076452599388379206
sV\u0936\u0930\u094d\u092e
p1935
F0.00076452599388379206
sV\u0926\u0947\u0916\u0915\u0930
p1936
F0.00076452599388379206
sV\u092c\u095d\u093f\u092f\u093e
p1937
F0.0024855012427506215
sV\u092b\u093e\u0938\u094d\u091f
p1938
F0.00082850041425020708
sV\u0936\u0930\u094d\u091f
p1939
F1.0836785418392709
sV\u0938\u093e\u0907\u091c\u093c
p1940
F0.00076452599388379206
sV\u0907\u0928\u0915\u0940
p1941
F0.00082850041425020708
sV\u0928\u093f\u092d\u093e\u0908
p1942
F0.00082850041425020708
sV\u0926\u0940\u0916\u0924\u093e
p1943
F0.00082850041425020708
sV\u092a\u094d\u0930\u092d\u093e\u0935\u093f\u0924
p1944
F0.0016570008285004142
sV\u0932\u0917\u092d\u0917
p1945
F0.0022935779816513763
sV\u0930\u094b\u0932\u0930
p1946
F0.00076452599388379206
sV\u091f\u094d\u0930\u0947\u0902\u0921
p1947
F0.00076452599388379206
sV\u092a\u093e\u0930\u093f\u0935\u093e\u0930\u093f\u0915
p1948
F0.00082850041425020708
sV\u0938\u094d\u091f\u0948\u0902\u0921
p1949
F0.00076452599388379206
sV\u092c\u0948\u0920\u0924\u0940
p1950
F0.00082850041425020708
sV\u090f\u0932\u0930\u094d\u091c\u0940
p1951
F0.00076452599388379206
sV\u092a\u0940\u092c\u0940
p1952
F0.00082850041425020708
sV\u092c\u0947\u0905\u0930
p1953
F0.00082850041425020708
sV\u0932\u093e\u0907\u0928
p1954
F1.8455657492354742
sV\u0916\u0940\u0902\u091a
p1955
F0.00076452599388379206
sV\u0915\u092a\u0921\u0947
p1956
F0.00082850041425020708
sV\u0905\u0935\u0927\u093f
p1957
F1.8455657492354742
sV\u0939\u0948
p1958
F1.4668363119895844
sV\u0939\u094b
p1959
F1.2384897621020239
sV\u0905\u0926\u094d\u092f\u0924\u0928
p1960
F1.0836785418392709
sV\u0939\u0941
p1961
F0.00082850041425020708
sV\u0939\u0940
p1962
F1.8422535211267606
sV\u0926\u0942\u0930\u0938\u094d\u0925
p1963
F0.00076452599388379206
sV\u0911\u092a\u094d\u0938
p1964
F0.00082850041425020708
sV\u090f\u0902\u0921
p1965
F0.00076452599388379206
sV\u092c\u0902\u0926
p1966
F2.4607543323139653
sV\u092c\u093f\u0916\u0930
p1967
F0.00076452599388379206
sV\u0939\u092c
p1968
F0.00076452599388379206
sV\u0939\u092e
p1969
F2.3069571865443428
sV\u092a\u0939\u091a\u093e\u0928\u093e
p1970
F0.00076452599388379206
sV\u092f\u093e\u0924\u094d\u0930\u093e
p1971
F0.00082850041425020708
sV\u0939\u0926
p1972
F0.00076452599388379206
sV\u0939\u0930
p1973
F3.251035625517813
sV\u0939\u0932
p1974
F0.00082850041425020708
sV\u0924\u0947\u091c
p1975
F0.0024855012427506215
sV\u092a\u094d\u0930\u093f\u092f
p1976
F0.00082850041425020708
sV\u0905\u092a
p1977
F0.0016570008285004142
sV\u0935\u093e\u0938\u094d\u0924\u0935\u093f\u0915
p1978
F0.0015290519877675841
sV\u0935\u094b\u0932\u094d\u091f
p1979
F0.0015290519877675841
sV\u0936\u094d\u0930\u0926\u094d\u0927\u093e\u0902\u091c\u0932\u093f
p1980
F0.00082850041425020708
sV\u0930\u0958\u092e
p1981
F0.00076452599388379206
sV\u0920\u0940\u0915
p1982
F2.1531600407747193
sV\u092a\u094d\u0930\u091c\u0928\u0928
p1983
F0.00076452599388379206
sV\u092a\u0948\u0921
p1984
F3.251035625517813
sV\u0938\u093e\u092e\u0917\u094d\u0930\u0940
p1985
F1.0836785418392709
sV\u091c\u093e\u0928\u0928\u093e
p1986
F0.00082850041425020708
sV\u091f\u094d\u0930\u093e\u0928\u094d\u0938\u0947\u0902\u0921\u0948\u0902\u091f\u0932
p1987
F0.00082850041425020708
sV\u0938\u0935\u093e\u0932
p1988
F0.00082850041425020708
sV\u0917\u0908
p1989
F0.0024855012427506215
sV\u092a\u0948\u0930
p1990
F1.8455657492354742
sV\u0909\u0932\u094d\u0932\u0938\u093f\u0924
p1991
F0.00082850041425020708
sV\u0924\u093e\u0930\u0940\u092b
p1992
F0.00082850041425020708
sV\u0921\u0947\u091f\u093e\u092c\u0947\u0938
p1993
F0.00082850041425020708
sV\u0909\u0932\u094d\u0932\u0947\u0916\u0928\u0940\u092f
p1994
F1.0836785418392709
sV\u092a\u0940\u0932\u093e
p1995
F0.00076452599388379206
sV\u0935\u0930\u094d\u0937\u0917\u093e\u0902\u0920
p1996
F0.00076452599388379206
sV49
p1997
F0.00076452599388379206
sV\u0915\u093e\u0930\u0923\u094b\u0902
p1998
F0.00076452599388379206
sV\u0915\u0948\u092e\u0930\u094b\u0902
p1999
F0.00076452599388379206
sV\u0932\u093f\u090f
p2000
F1.5338219361417376
sV\u092c\u0941\u0930\u0940
p2001
F0.0053516819571865441
sV\u0938\u0940\u092e\u093e\u0902\u0924
p2002
F0.00076452599388379206
sV\u0921\u093f\u0938\u094d\u0915
p2003
F0.0022935779816513763
sV\u092c\u0941\u0930\u093e
p2004
F0.0091743119266055051
sV\u0938\u092c\u0942\u0924
p2005
F0.00082850041425020708
sV\u0909\u092a\u092f\u094b\u0917\u0915\u0930\u094d\u0924\u093e
p2006
F2.7683486238532113
sV\u095e\u094d\u0930\u0947\u092e
p2007
F0.00076452599388379206
sV\u092c\u0949\u0921\u0940\u0935\u093e\u0936
p2008
F0.00082850041425020708
sV\u092a\u094d\u0930\u0935\u093f\u0937\u094d\u091f\u093f
p2009
F0.00076452599388379206
sV\u0935\u0915\u094d\u0924
p2010
F0.00082850041425020708
sV\u0905\u092c
p2011
F1.0836785418392709
sV\u090f\u0938\u0906\u0908
p2012
F0.00082850041425020708
sV\u092c\u093f\u0928\u093e
p2013
F2.1673570836785419
sV\u0905\u092d\u093f\u0928\u0947\u0924\u093e
p2014
F0.00076452599388379206
sV\u090f\u0939\u0938\u093e\u0928
p2015
F0.00076452599388379206
s.